

Microchip MPLAB XC8 Assembler V2.41 build 20230208172133 
                                                                                               Mon May 22 15:54:53 2023

Microchip MPLAB XC8 C Compiler v2.41 (Free license) build 20230208172133 Og1 
     1                           	processor	16F887
     2                           	pagewidth 120
     3                           	opt	flic
     4                           	psect	idataBANK0,global,class=CODE,delta=2,noexec
     5                           	psect	idataBANK1,global,class=CODE,delta=2,noexec
     6                           	psect	strings,global,class=STRING,delta=2,noexec
     7                           	psect	cinit,global,class=CODE,merge=1,delta=2
     8                           	psect	bssBANK0,global,class=BANK0,space=1,delta=1,noexec
     9                           	psect	dataBANK0,global,class=BANK0,space=1,delta=1,noexec
    10                           	psect	dataBANK1,global,class=BANK1,space=1,delta=1,noexec
    11                           	psect	inittext,global,class=CODE,delta=2
    12                           	psect	cstackCOMMON,global,class=COMMON,space=1,delta=1,noexec
    13                           	psect	cstackBANK0,global,class=BANK0,space=1,delta=1,noexec
    14                           	psect	maintext,global,class=CODE,split=1,delta=2
    15                           	psect	text1,local,class=CODE,merge=1,delta=2
    16                           	psect	text2,local,class=CODE,merge=1,delta=2,group=1
    17                           	psect	text3,local,class=CODE,merge=1,delta=2,group=1
    18                           	psect	text4,local,class=CODE,merge=1,delta=2,group=1
    19                           	psect	text5,local,class=CODE,merge=1,delta=2,group=1
    20                           	psect	text6,local,class=CODE,merge=1,delta=2,group=1
    21                           	psect	text7,local,class=CODE,merge=1,delta=2
    22                           	psect	text8,local,class=CODE,merge=1,delta=2,group=1
    23                           	psect	text9,local,class=CODE,merge=1,delta=2
    24                           	psect	intentry,global,class=CODE,delta=2
    25                           	psect	idloc,global,abs,ovrld,class=IDLOC,space=5,delta=2,noexec
    26                           	psect	config,global,abs,ovrld,class=CONFIG,space=4,delta=2,noexec
    27                           	dabs	1,0x7E,2
    28     0000                     
    29                           ; Version 2.40
    30                           ; Generated 17/11/2021 GMT
    31                           ; 
    32                           ; Copyright © 2021, Microchip Technology Inc. and its subsidiaries ("Microchip")
    33                           ; All rights reserved.
    34                           ; 
    35                           ; This software is developed by Microchip Technology Inc. and its subsidiaries ("Microch
      +                          ip").
    36                           ; 
    37                           ; Redistribution and use in source and binary forms, with or without modification, are
    38                           ; permitted provided that the following conditions are met:
    39                           ; 
    40                           ;     1. Redistributions of source code must retain the above copyright notice, this lis
      +                          t of
    41                           ;        conditions and the following disclaimer.
    42                           ; 
    43                           ;     2. Redistributions in binary form must reproduce the above copyright notice, this 
      +                          list
    44                           ;        of conditions and the following disclaimer in the documentation and/or other
    45                           ;        materials provided with the distribution. Publication is not required when
    46                           ;        this file is used in an embedded application.
    47                           ; 
    48                           ;     3. Microchip's name may not be used to endorse or promote products derived from th
      +                          is
    49                           ;        software without specific prior written permission.
    50                           ; 
    51                           ; THIS SOFTWARE IS PROVIDED BY MICROCHIP "AS IS" AND ANY EXPRESS OR IMPLIED WARRANTIES,
    52                           ; INCLUDING, BUT NOT LIMITED TO, THE IMPLIED WARRANTIES OF MERCHANTABILITY AND FITNESS F
      +                          OR
    53                           ; PURPOSE ARE DISCLAIMED.  IN NO EVENT SHALL MICROCHIP BE LIABLE FOR ANY DIRECT, INDIREC
      +                          T,
    54                           ; INCIDENTAL, SPECIAL, EXEMPLARY, OR CONSEQUENTIAL DAMAGES (INCLUDING BUT NOT LIMITED TO
    55                           ; PROCUREMENT OF SUBSTITUTE GOODS OR SERVICES; LOSS OF USE, DATA OR PROFITS; OR BUSINESS
    56                           ; INTERRUPTION) HOWSOEVER CAUSED AND ON ANY THEORY OF LIABILITY, WHETHER IN CONTRACT, ST
      +                          RICT
    57                           ; LIABILITY, OR TORT (INCLUDING NEGLIGENCE OR OTHERWISE) ARISING IN ANY WAY OUT OF THE U
      +                          SE OF
    58                           ; THIS SOFTWARE, EVEN IF ADVISED OF THE POSSIBILITY OF SUCH DAMAGE.
    59                           ; 
    60                           ; 
    61                           ; Code-generator required, PIC16F887 Definitions
    62                           ; 
    63                           ; SFR Addresses
    64     0000                     	;# 
    65     0001                     	;# 
    66     0002                     	;# 
    67     0003                     	;# 
    68     0004                     	;# 
    69     0005                     	;# 
    70     0006                     	;# 
    71     0007                     	;# 
    72     0008                     	;# 
    73     0009                     	;# 
    74     000A                     	;# 
    75     000B                     	;# 
    76     000C                     	;# 
    77     000D                     	;# 
    78     000E                     	;# 
    79     000E                     	;# 
    80     000F                     	;# 
    81     0010                     	;# 
    82     0011                     	;# 
    83     0012                     	;# 
    84     0013                     	;# 
    85     0014                     	;# 
    86     0015                     	;# 
    87     0015                     	;# 
    88     0016                     	;# 
    89     0017                     	;# 
    90     0018                     	;# 
    91     0019                     	;# 
    92     001A                     	;# 
    93     001B                     	;# 
    94     001B                     	;# 
    95     001C                     	;# 
    96     001D                     	;# 
    97     001E                     	;# 
    98     001F                     	;# 
    99     0081                     	;# 
   100     0085                     	;# 
   101     0086                     	;# 
   102     0087                     	;# 
   103     0088                     	;# 
   104     0089                     	;# 
   105     008C                     	;# 
   106     008D                     	;# 
   107     008E                     	;# 
   108     008F                     	;# 
   109     0090                     	;# 
   110     0091                     	;# 
   111     0092                     	;# 
   112     0093                     	;# 
   113     0093                     	;# 
   114     0093                     	;# 
   115     0094                     	;# 
   116     0095                     	;# 
   117     0096                     	;# 
   118     0097                     	;# 
   119     0098                     	;# 
   120     0099                     	;# 
   121     009A                     	;# 
   122     009B                     	;# 
   123     009C                     	;# 
   124     009D                     	;# 
   125     009E                     	;# 
   126     009F                     	;# 
   127     0105                     	;# 
   128     0107                     	;# 
   129     0108                     	;# 
   130     0109                     	;# 
   131     010C                     	;# 
   132     010C                     	;# 
   133     010D                     	;# 
   134     010E                     	;# 
   135     010F                     	;# 
   136     0185                     	;# 
   137     0187                     	;# 
   138     0188                     	;# 
   139     0189                     	;# 
   140     018C                     	;# 
   141     018D                     	;# 
   142     0000                     	;# 
   143     0001                     	;# 
   144     0002                     	;# 
   145     0003                     	;# 
   146     0004                     	;# 
   147     0005                     	;# 
   148     0006                     	;# 
   149     0007                     	;# 
   150     0008                     	;# 
   151     0009                     	;# 
   152     000A                     	;# 
   153     000B                     	;# 
   154     000C                     	;# 
   155     000D                     	;# 
   156     000E                     	;# 
   157     000E                     	;# 
   158     000F                     	;# 
   159     0010                     	;# 
   160     0011                     	;# 
   161     0012                     	;# 
   162     0013                     	;# 
   163     0014                     	;# 
   164     0015                     	;# 
   165     0015                     	;# 
   166     0016                     	;# 
   167     0017                     	;# 
   168     0018                     	;# 
   169     0019                     	;# 
   170     001A                     	;# 
   171     001B                     	;# 
   172     001B                     	;# 
   173     001C                     	;# 
   174     001D                     	;# 
   175     001E                     	;# 
   176     001F                     	;# 
   177     0081                     	;# 
   178     0085                     	;# 
   179     0086                     	;# 
   180     0087                     	;# 
   181     0088                     	;# 
   182     0089                     	;# 
   183     008C                     	;# 
   184     008D                     	;# 
   185     008E                     	;# 
   186     008F                     	;# 
   187     0090                     	;# 
   188     0091                     	;# 
   189     0092                     	;# 
   190     0093                     	;# 
   191     0093                     	;# 
   192     0093                     	;# 
   193     0094                     	;# 
   194     0095                     	;# 
   195     0096                     	;# 
   196     0097                     	;# 
   197     0098                     	;# 
   198     0099                     	;# 
   199     009A                     	;# 
   200     009B                     	;# 
   201     009C                     	;# 
   202     009D                     	;# 
   203     009E                     	;# 
   204     009F                     	;# 
   205     0105                     	;# 
   206     0107                     	;# 
   207     0108                     	;# 
   208     0109                     	;# 
   209     010C                     	;# 
   210     010C                     	;# 
   211     010D                     	;# 
   212     010E                     	;# 
   213     010F                     	;# 
   214     0185                     	;# 
   215     0187                     	;# 
   216     0188                     	;# 
   217     0189                     	;# 
   218     018C                     	;# 
   219     018D                     	;# 
   220                           
   221                           	psect	idataBANK0
   222     06FF                     __pidataBANK0:
   223                           
   224                           ;initializer for _switchRitm
   225     06FF  3401               	retlw	1
   226                           
   227                           	psect	idataBANK1
   228     0699                     __pidataBANK1:
   229                           
   230                           ;initializer for _duration
   231     0699  3401               	retlw	1
   232     069A  3401               	retlw	1
   233     069B  3402               	retlw	2
   234     069C  3402               	retlw	2
   235     069D  3401               	retlw	1
   236     069E  3401               	retlw	1
   237     069F  3402               	retlw	2
   238     06A0  3402               	retlw	2
   239     06A1  3401               	retlw	1
   240     06A2  3401               	retlw	1
   241     06A3  3402               	retlw	2
   242     06A4  3402               	retlw	2
   243     06A5  3401               	retlw	1
   244     06A6  3401               	retlw	1
   245     06A7  3401               	retlw	1
   246     06A8  3401               	retlw	1
   247     06A9  3402               	retlw	2
   248     06AA  3401               	retlw	1
   249     06AB  3401               	retlw	1
   250     06AC  3402               	retlw	2
   251     06AD  3402               	retlw	2
   252     06AE  3401               	retlw	1
   253     06AF  3401               	retlw	1
   254     06B0  3402               	retlw	2
   255     06B1  3402               	retlw	2
   256     06B2  3401               	retlw	1
   257     06B3  3401               	retlw	1
   258     06B4  3402               	retlw	2
   259     06B5  3402               	retlw	2
   260     06B6  3401               	retlw	1
   261     06B7  3401               	retlw	1
   262     06B8  3402               	retlw	2
   263     06B9  3402               	retlw	2
   264     06BA  3401               	retlw	1
   265     06BB  3401               	retlw	1
   266     06BC  3402               	retlw	2
   267     06BD  3402               	retlw	2
   268     06BE  3401               	retlw	1
   269     06BF  3401               	retlw	1
   270     06C0  3402               	retlw	2
   271     06C1  3402               	retlw	2
   272     06C2  3401               	retlw	1
   273     06C3  3401               	retlw	1
   274     06C4  3402               	retlw	2
   275     06C5  3402               	retlw	2
   276     06C6  3401               	retlw	1
   277     06C7  3401               	retlw	1
   278     06C8  3401               	retlw	1
   279     06C9  3401               	retlw	1
   280     06CA  3402               	retlw	2
   281     06CB  3401               	retlw	1
   282     06CC  3401               	retlw	1
   283     06CD  3402               	retlw	2
   284     06CE  3402               	retlw	2
   285     06CF  3402               	retlw	2
   286     06D0  3401               	retlw	1
   287     06D1  3401               	retlw	1
   288     06D2  3402               	retlw	2
   289     06D3  3401               	retlw	1
   290     06D4  3401               	retlw	1
   291     06D5  3402               	retlw	2
   292     06D6  3402               	retlw	2
   293     06D7  3401               	retlw	1
   294     06D8  3401               	retlw	1
   295     06D9  3404               	retlw	4
   296                           
   297                           	psect	strings
   298     0700                     __pstrings:
   299     0700                     stringtab:
   300     0700                     __stringtab:
   301     0700                     stringcode:	
   302                           ;	String table - string pointers are 1 byte each
   303                           
   304     0700                     stringdir:
   305     0700  3007               	movlw	high stringdir
   306     0701  008A               	movwf	10
   307     0702  0804               	movf	4,w
   308     0703  0A84               	incf	4,f
   309     0704  0782               	addwf	2,f
   310     0705                     __stringbase:
   311     0705  3400               	retlw	0
   312     0706                     __end_of__stringtab:
   313     0706                     _notes:
   314     0706  34F7               	retlw	247
   315     0707  3400               	retlw	0
   316     0708  3426               	retlw	38
   317     0709  3401               	retlw	1
   318     070A  344A               	retlw	74
   319     070B  3401               	retlw	1
   320     070C  344A               	retlw	74
   321     070D  3401               	retlw	1
   322     070E  344A               	retlw	74
   323     070F  3401               	retlw	1
   324     0710  3472               	retlw	114
   325     0711  3401               	retlw	1
   326     0712  3488               	retlw	136
   327     0713  3401               	retlw	1
   328     0714  3488               	retlw	136
   329     0715  3401               	retlw	1
   330     0716  3488               	retlw	136
   331     0717  3401               	retlw	1
   332     0718  34B8               	retlw	184
   333     0719  3401               	retlw	1
   334     071A  3472               	retlw	114
   335     071B  3401               	retlw	1
   336     071C  3472               	retlw	114
   337     071D  3401               	retlw	1
   338     071E  344A               	retlw	74
   339     071F  3401               	retlw	1
   340     0720  3426               	retlw	38
   341     0721  3401               	retlw	1
   342     0722  3426               	retlw	38
   343     0723  3401               	retlw	1
   344     0724  344A               	retlw	74
   345     0725  3401               	retlw	1
   346     0726  344A               	retlw	74
   347     0727  3401               	retlw	1
   348     0728  34F7               	retlw	247
   349     0729  3400               	retlw	0
   350     072A  3426               	retlw	38
   351     072B  3401               	retlw	1
   352     072C  344A               	retlw	74
   353     072D  3401               	retlw	1
   354     072E  344A               	retlw	74
   355     072F  3401               	retlw	1
   356     0730  344A               	retlw	74
   357     0731  3401               	retlw	1
   358     0732  3472               	retlw	114
   359     0733  3401               	retlw	1
   360     0734  3488               	retlw	136
   361     0735  3401               	retlw	1
   362     0736  3488               	retlw	136
   363     0737  3401               	retlw	1
   364     0738  3488               	retlw	136
   365     0739  3401               	retlw	1
   366     073A  34B8               	retlw	184
   367     073B  3401               	retlw	1
   368     073C  3472               	retlw	114
   369     073D  3401               	retlw	1
   370     073E  3472               	retlw	114
   371     073F  3401               	retlw	1
   372     0740  344A               	retlw	74
   373     0741  3401               	retlw	1
   374     0742  3426               	retlw	38
   375     0743  3401               	retlw	1
   376     0744  344A               	retlw	74
   377     0745  3401               	retlw	1
   378     0746  344A               	retlw	74
   379     0747  3401               	retlw	1
   380     0748  34F7               	retlw	247
   381     0749  3400               	retlw	0
   382     074A  3426               	retlw	38
   383     074B  3401               	retlw	1
   384     074C  344A               	retlw	74
   385     074D  3401               	retlw	1
   386     074E  344A               	retlw	74
   387     074F  3401               	retlw	1
   388     0750  344A               	retlw	74
   389     0751  3401               	retlw	1
   390     0752  3488               	retlw	136
   391     0753  3401               	retlw	1
   392     0754  34B8               	retlw	184
   393     0755  3401               	retlw	1
   394     0756  34B8               	retlw	184
   395     0757  3401               	retlw	1
   396     0758  34B8               	retlw	184
   397     0759  3401               	retlw	1
   398     075A  34EE               	retlw	238
   399     075B  3401               	retlw	1
   400     075C  340B               	retlw	11
   401     075D  3402               	retlw	2
   402     075E  340B               	retlw	11
   403     075F  3402               	retlw	2
   404     0760  34EE               	retlw	238
   405     0761  3401               	retlw	1
   406     0762  34B8               	retlw	184
   407     0763  3401               	retlw	1
   408     0764  34EE               	retlw	238
   409     0765  3401               	retlw	1
   410     0766  344A               	retlw	74
   411     0767  3401               	retlw	1
   412     0768  344A               	retlw	74
   413     0769  3401               	retlw	1
   414     076A  344A               	retlw	74
   415     076B  3401               	retlw	1
   416     076C  3472               	retlw	114
   417     076D  3401               	retlw	1
   418     076E  3488               	retlw	136
   419     076F  3401               	retlw	1
   420     0770  3488               	retlw	136
   421     0771  3401               	retlw	1
   422     0772  34B8               	retlw	184
   423     0773  3401               	retlw	1
   424     0774  34EE               	retlw	238
   425     0775  3401               	retlw	1
   426     0776  344A               	retlw	74
   427     0777  3401               	retlw	1
   428     0778  344A               	retlw	74
   429     0779  3401               	retlw	1
   430     077A  344A               	retlw	74
   431     077B  3401               	retlw	1
   432     077C  3488               	retlw	136
   433     077D  3401               	retlw	1
   434     077E  3472               	retlw	114
   435     077F  3401               	retlw	1
   436     0780  3472               	retlw	114
   437     0781  3401               	retlw	1
   438     0782  344A               	retlw	74
   439     0783  3401               	retlw	1
   440     0784  3426               	retlw	38
   441     0785  3401               	retlw	1
   442     0786  344A               	retlw	74
   443     0787  3401               	retlw	1
   444     0788                     __end_of_notes:
   445     0006                     _PORTBbits	set	6
   446     0008                     _PORTD	set	8
   447     0006                     _PORTB	set	6
   448     0010                     _T1CONbits	set	16
   449     0007                     _PORTCbits	set	7
   450     000E                     _TMR1L	set	14
   451     000F                     _TMR1H	set	15
   452     005C                     _INTE	set	92
   453     005E                     _PEIE	set	94
   454     005F                     _GIE	set	95
   455     0060                     _TMR1IF	set	96
   456     0059                     _INTF	set	89
   457     0095                     _WPUB	set	149
   458     0081                     _OPTION_REGbits	set	129
   459     0088                     _TRISD	set	136
   460     0086                     _TRISBbits	set	134
   461     0087                     _TRISCbits	set	135
   462     0460                     _TMR1IE	set	1120
   463     0189                     _ANSELH	set	393
   464     0188                     _ANSEL	set	392
   465                           
   466                           	psect	cinit
   467     0011                     start_initialization:	
   468                           ; #config settings
   469                           
   470     0011                     __initialization:
   471                           
   472                           ; Initialize objects allocated to BANK1
   473     0011  1383               	bcf	3,7	;select IRP bank0
   474     0012  30E1               	movlw	low (__pdataBANK1+65)
   475     0013  00FD               	movwf	btemp+-1
   476     0014  3006               	movlw	high __pidataBANK1
   477     0015  00FE               	movwf	btemp
   478     0016  3099               	movlw	low __pidataBANK1
   479     0017  00FF               	movwf	btemp+1
   480     0018  30A0               	movlw	low __pdataBANK1
   481     0019  0084               	movwf	4
   482     001A  120A  158A  277D  120A  118A  	fcall	init_ram0
   483                           
   484                           ; Initialize objects allocated to BANK0
   485     001F  120A  118A  26FF  120A  118A  	fcall	__pidataBANK0	;fetch initializer
   486     0024  00DD               	movwf	__pdataBANK0& (0+127)
   487                           
   488                           ; Clear objects allocated to BANK0
   489     0025  01DB               	clrf	__pbssBANK0& (0+127)
   490     0026  01DC               	clrf	(__pbssBANK0+1)& (0+127)
   491     0027                     end_of_initialization:	
   492                           ;End of C runtime variable initialization code
   493                           
   494     0027                     __end_of__initialization:
   495     0027  0183               	clrf	3
   496     0028  120A  118A  2D19   	ljmp	_main	;jump to C main() function
   497                           
   498                           	psect	bssBANK0
   499     005B                     __pbssBANK0:
   500     005B                     _timerL:
   501     005B                     	ds	1
   502     005C                     _timerH:
   503     005C                     	ds	1
   504                           
   505                           	psect	dataBANK0
   506     005D                     __pdataBANK0:
   507     005D                     _switchRitm:
   508     005D                     	ds	1
   509                           
   510                           	psect	dataBANK1
   511     00A0                     __pdataBANK1:
   512     00A0                     _duration:
   513     00A0                     	ds	65
   514                           
   515                           	psect	inittext
   516     0F79                     init_fetch0:	
   517                           ;	Called with low address in FSR and high address in W
   518                           
   519     0F79  087E               	movf	btemp,w
   520     0F7A  008A               	movwf	10
   521     0F7B  087F               	movf	btemp+1,w
   522     0F7C  0082               	movwf	2
   523     0F7D                     init_ram0:	
   524                           ;Called with:
   525                           ;	high address of idata address in btemp 
   526                           ;	low address of idata address in btemp+1 
   527                           ;	low address of data in FSR
   528                           ;	high address + 1 of data in btemp-1
   529                           
   530     0F7D  120A  158A  2779  120A  158A  	fcall	init_fetch0
   531     0F82  0080               	movwf	0
   532     0F83  0A84               	incf	4,f
   533     0F84  0804               	movf	4,w
   534     0F85  067D               	xorwf	btemp+-1,w
   535     0F86  1903               	btfsc	3,2
   536     0F87  3400               	retlw	0
   537     0F88  0AFF               	incf	btemp+1,f
   538     0F89  1903               	btfsc	3,2
   539     0F8A  0AFE               	incf	btemp,f
   540     0F8B  2F7D               	goto	init_ram0
   541                           
   542                           	psect	cstackCOMMON
   543     0070                     __pcstackCOMMON:
   544     0070                     ?_isr:
   545     0070                     ??_isr:	
   546                           ; 1 bytes @ 0x0
   547                           
   548     0070                     ?_main:	
   549                           ; 1 bytes @ 0x0
   550                           
   551                           
   552                           ; 1 bytes @ 0x0
   553     0070                     	ds	3
   554     0073                     ?_Delay_Ms:
   555     0073                     ?___wmul:	
   556                           ; 1 bytes @ 0x3
   557                           
   558     0073                     ?___fladd:	
   559                           ; 2 bytes @ 0x3
   560                           
   561     0073                     ?___xxtofl:	
   562                           ; 4 bytes @ 0x3
   563                           
   564     0073                     Delay_Ms@s:	
   565                           ; 4 bytes @ 0x3
   566                           
   567     0073                     ___wmul@multiplier:	
   568                           ; 2 bytes @ 0x3
   569                           
   570     0073                     ___fladd@b:	
   571                           ; 2 bytes @ 0x3
   572                           
   573     0073                     ___xxtofl@val:	
   574                           ; 4 bytes @ 0x3
   575                           
   576                           
   577                           ; 4 bytes @ 0x3
   578     0073                     	ds	2
   579     0075                     ??_Delay_Ms:
   580     0075                     ___wmul@multiplicand:	
   581                           ; 1 bytes @ 0x5
   582                           
   583                           
   584                           ; 2 bytes @ 0x5
   585     0075                     	ds	2
   586     0077                     ??___wmul:
   587     0077                     ??___xxtofl:	
   588                           ; 1 bytes @ 0x7
   589                           
   590     0077                     Delay_Ms@j:	
   591                           ; 1 bytes @ 0x7
   592                           
   593     0077                     ___wmul@product:	
   594                           ; 2 bytes @ 0x7
   595                           
   596     0077                     ___fladd@a:	
   597                           ; 2 bytes @ 0x7
   598                           
   599                           
   600                           ; 4 bytes @ 0x7
   601     0077                     	ds	4
   602     007B                     ??___flsub:
   603                           
   604                           	psect	cstackBANK0
   605     0020                     __pcstackBANK0:	
   606                           ; 1 bytes @ 0xB
   607                           
   608     0020                     ??___fladd:
   609     0020                     ___xxtofl@sign:	
   610                           ; 1 bytes @ 0x0
   611                           
   612                           
   613                           ; 1 bytes @ 0x0
   614     0020                     	ds	1
   615     0021                     ___xxtofl@exp:
   616                           
   617                           ; 1 bytes @ 0x1
   618     0021                     	ds	1
   619     0022                     ___xxtofl@arg:
   620                           
   621                           ; 4 bytes @ 0x2
   622     0022                     	ds	4
   623     0026                     ?___fldiv:
   624     0026                     ___fldiv@a:	
   625                           ; 4 bytes @ 0x6
   626                           
   627                           
   628                           ; 4 bytes @ 0x6
   629     0026                     	ds	2
   630     0028                     ___fladd@signs:
   631                           
   632                           ; 1 bytes @ 0x8
   633     0028                     	ds	1
   634     0029                     ___fladd@aexp:
   635                           
   636                           ; 1 bytes @ 0x9
   637     0029                     	ds	1
   638     002A                     ___fladd@bexp:
   639     002A                     ___fldiv@b:	
   640                           ; 1 bytes @ 0xA
   641                           
   642                           
   643                           ; 4 bytes @ 0xA
   644     002A                     	ds	1
   645     002B                     ___fladd@grs:
   646                           
   647                           ; 1 bytes @ 0xB
   648     002B                     	ds	1
   649     002C                     ?___flsub:
   650     002C                     ___flsub@a:	
   651                           ; 4 bytes @ 0xC
   652                           
   653                           
   654                           ; 4 bytes @ 0xC
   655     002C                     	ds	2
   656     002E                     ??___fldiv:
   657                           
   658                           ; 1 bytes @ 0xE
   659     002E                     	ds	2
   660     0030                     ___flsub@b:
   661                           
   662                           ; 4 bytes @ 0x10
   663     0030                     	ds	3
   664     0033                     ___fldiv@rem:
   665                           
   666                           ; 4 bytes @ 0x13
   667     0033                     	ds	4
   668     0037                     ___fldiv@sign:
   669                           
   670                           ; 1 bytes @ 0x17
   671     0037                     	ds	1
   672     0038                     ___fldiv@new_exp:
   673                           
   674                           ; 2 bytes @ 0x18
   675     0038                     	ds	2
   676     003A                     ___fldiv@grs:
   677                           
   678                           ; 4 bytes @ 0x1A
   679     003A                     	ds	4
   680     003E                     ___fldiv@bexp:
   681                           
   682                           ; 1 bytes @ 0x1E
   683     003E                     	ds	1
   684     003F                     ___fldiv@aexp:
   685                           
   686                           ; 1 bytes @ 0x1F
   687     003F                     	ds	1
   688     0040                     ?___fltol:
   689     0040                     ___fltol@f1:	
   690                           ; 4 bytes @ 0x20
   691                           
   692                           
   693                           ; 4 bytes @ 0x20
   694     0040                     	ds	4
   695     0044                     ??___fltol:
   696                           
   697                           ; 1 bytes @ 0x24
   698     0044                     	ds	4
   699     0048                     ___fltol@sign1:
   700                           
   701                           ; 1 bytes @ 0x28
   702     0048                     	ds	1
   703     0049                     ___fltol@exp1:
   704                           
   705                           ; 1 bytes @ 0x29
   706     0049                     	ds	1
   707     004A                     ?_soundPlay:
   708     004A                     soundPlay@freq:	
   709                           ; 1 bytes @ 0x2A
   710                           
   711                           
   712                           ; 2 bytes @ 0x2A
   713     004A                     	ds	2
   714     004C                     soundPlay@duration:
   715                           
   716                           ; 2 bytes @ 0x2C
   717     004C                     	ds	2
   718     004E                     ??_soundPlay:
   719                           
   720                           ; 1 bytes @ 0x2E
   721     004E                     	ds	2
   722     0050                     soundPlay@period:
   723                           
   724                           ; 4 bytes @ 0x30
   725     0050                     	ds	4
   726     0054                     ??_main:
   727                           
   728                           ; 1 bytes @ 0x34
   729     0054                     	ds	4
   730     0058                     _main$879:
   731                           
   732                           ; 2 bytes @ 0x38
   733     0058                     	ds	2
   734     005A                     main@i:
   735                           
   736                           ; 1 bytes @ 0x3A
   737     005A                     	ds	1
   738                           
   739                           	psect	maintext
   740     0519                     __pmaintext:	
   741 ;;
   742 ;;Main: autosize = 0, tempsize = 4, incstack = 0, save=0
   743 ;;
   744 ;; *************** function _main *****************
   745 ;; Defined at:
   746 ;;		line 77 in file "test2.c"
   747 ;; Parameters:    Size  Location     Type
   748 ;;		None
   749 ;; Auto vars:     Size  Location     Type
   750 ;;  i               1   58[BANK0 ] unsigned char 
   751 ;; Return value:  Size  Location     Type
   752 ;;                  1    wreg      void 
   753 ;; Registers used:
   754 ;;		wreg, fsr0l, fsr0h, status,2, status,0, btemp+1, pclath, cstack
   755 ;; Tracked objects:
   756 ;;		On entry : B00/0
   757 ;;		On exit  : 0/0
   758 ;;		Unchanged: 0/0
   759 ;; Data sizes:     COMMON   BANK0   BANK1   BANK3   BANK2
   760 ;;      Params:         0       0       0       0       0
   761 ;;      Locals:         0       3       0       0       0
   762 ;;      Temps:          0       4       0       0       0
   763 ;;      Totals:         0       7       0       0       0
   764 ;;Total ram usage:        7 bytes
   765 ;; Hardware stack levels required when called: 4
   766 ;; This function calls:
   767 ;;		___wmul
   768 ;;		_soundPlay
   769 ;; This function is called by:
   770 ;;		Startup code after reset
   771 ;; This function uses a non-reentrant model
   772 ;;
   773                           
   774     0519                     _main:	
   775                           ;psect for function _main
   776                           
   777     0519                     l1749:	
   778                           ;incstack = 0
   779                           ; Regs used in _main: [wreg-fsr0h+status,2+status,0+btemp+1+pclath+cstack]
   780                           
   781                           
   782                           ;test2.c: 78:     unsigned char i;;test2.c: 80:     ANSEL = ANSELH = 0;
   783     0519  1683               	bsf	3,5	;RP0=1, select bank3
   784     051A  1703               	bsf	3,6	;RP1=1, select bank3
   785     051B  0189               	clrf	9	;volatile
   786     051C  0188               	clrf	8	;volatile
   787     051D                     l1751:
   788                           
   789                           ;test2.c: 81:     TRISCbits.TRISC2 = 0;
   790     051D  1683               	bsf	3,5	;RP0=1, select bank1
   791     051E  1303               	bcf	3,6	;RP1=0, select bank1
   792     051F  1107               	bcf	7,2	;volatile
   793     0520                     l1753:
   794                           
   795                           ;test2.c: 82:     PORTCbits.RC2 = 0;
   796     0520  1283               	bcf	3,5	;RP0=0, select bank0
   797     0521  1303               	bcf	3,6	;RP1=0, select bank0
   798     0522  1107               	bcf	7,2	;volatile
   799     0523                     l1755:
   800                           
   801                           ;test2.c: 83:     TRISBbits.TRISB0 = 1;
   802     0523  1683               	bsf	3,5	;RP0=1, select bank1
   803     0524  1303               	bcf	3,6	;RP1=0, select bank1
   804     0525  1406               	bsf	6,0	;volatile
   805     0526                     l1757:
   806                           
   807                           ;test2.c: 84:     TRISBbits.TRISB1 = 1;
   808     0526  1486               	bsf	6,1	;volatile
   809                           
   810                           ;test2.c: 85:     PORTB = 0x00;
   811     0527  1283               	bcf	3,5	;RP0=0, select bank0
   812     0528  1303               	bcf	3,6	;RP1=0, select bank0
   813     0529  0186               	clrf	6	;volatile
   814                           
   815                           ;test2.c: 86:     TRISD = 0x00;
   816     052A  1683               	bsf	3,5	;RP0=1, select bank1
   817     052B  1303               	bcf	3,6	;RP1=0, select bank1
   818     052C  0188               	clrf	8	;volatile
   819                           
   820                           ;test2.c: 87:     PORTD = 0x00;
   821     052D  1283               	bcf	3,5	;RP0=0, select bank0
   822     052E  1303               	bcf	3,6	;RP1=0, select bank0
   823     052F  0188               	clrf	8	;volatile
   824     0530                     l1759:
   825                           
   826                           ;test2.c: 90:     T1CONbits.TMR1ON = 0;
   827     0530  1010               	bcf	16,0	;volatile
   828     0531                     l1761:
   829                           
   830                           ;test2.c: 91:     T1CONbits.TMR1CS = 0;
   831     0531  1090               	bcf	16,1	;volatile
   832     0532                     l1763:
   833                           
   834                           ;test2.c: 92:     T1CONbits.T1CKPS1 = 1;
   835     0532  1690               	bsf	16,5	;volatile
   836     0533                     l1765:
   837                           
   838                           ;test2.c: 93:     T1CONbits.T1CKPS0 = 0;
   839     0533  1210               	bcf	16,4	;volatile
   840     0534                     l1767:
   841                           
   842                           ;test2.c: 95:     TMR1IE = 1;
   843     0534  1683               	bsf	3,5	;RP0=1, select bank1
   844     0535  1303               	bcf	3,6	;RP1=0, select bank1
   845     0536  140C               	bsf	12,0	;volatile
   846     0537                     l1769:
   847                           
   848                           ;test2.c: 96:     TMR1IF = 0;
   849     0537  1283               	bcf	3,5	;RP0=0, select bank0
   850     0538  1303               	bcf	3,6	;RP1=0, select bank0
   851     0539  100C               	bcf	12,0	;volatile
   852     053A                     l1771:
   853                           
   854                           ;test2.c: 98:     GIE = 1;
   855     053A  178B               	bsf	11,7	;volatile
   856     053B                     l1773:
   857                           
   858                           ;test2.c: 99:     PEIE = 1;
   859     053B  170B               	bsf	11,6	;volatile
   860     053C                     l1775:
   861                           
   862                           ;test2.c: 101:     INTE = 1;
   863     053C  160B               	bsf	11,4	;volatile
   864     053D                     l1777:
   865                           
   866                           ;test2.c: 102:     INTF = 0;
   867     053D  108B               	bcf	11,1	;volatile
   868     053E                     l1779:
   869                           
   870                           ;test2.c: 104:     OPTION_REGbits.nRBPU = 0;
   871     053E  1683               	bsf	3,5	;RP0=1, select bank1
   872     053F  1303               	bcf	3,6	;RP1=0, select bank1
   873     0540  1381               	bcf	1,7	;volatile
   874     0541                     l1781:
   875                           
   876                           ;test2.c: 105:     WPUB = 0x01;
   877     0541  3001               	movlw	1
   878     0542  0095               	movwf	21	;volatile
   879     0543                     l1783:
   880                           
   881                           ;test2.c: 106:     OPTION_REGbits.INTEDG = 0;
   882     0543  1301               	bcf	1,6	;volatile
   883     0544                     l1785:
   884                           
   885                           ;test2.c: 109:         if(PORTBbits.RB1){
   886     0544  1283               	bcf	3,5	;RP0=0, select bank0
   887     0545  1303               	bcf	3,6	;RP1=0, select bank0
   888     0546  1C86               	btfss	6,1	;volatile
   889     0547  2D49               	goto	u2221
   890     0548  2D4A               	goto	u2220
   891     0549                     u2221:
   892     0549  2DD8               	goto	l1815
   893     054A                     u2220:
   894     054A                     l1787:
   895                           
   896                           ;test2.c: 110:             for(i = 0;i < 65; i++){
   897     054A  01DA               	clrf	main@i
   898     054B                     l76:
   899                           
   900                           ;test2.c: 111:                 if(PORTBbits.RB1 == 0)
   901     054B  1886               	btfsc	6,1	;volatile
   902     054C  2D4E               	goto	u2231
   903     054D  2D4F               	goto	u2230
   904     054E                     u2231:
   905     054E  2D59               	goto	l1801
   906     054F                     u2230:
   907     054F  2DC9               	goto	l1813
   908     0550                     l1795:
   909                           
   910                           ;test2.c: 115:                     PORTD = 0x03;
   911     0550  3003               	movlw	3
   912     0551  0088               	movwf	8	;volatile
   913                           
   914                           ;test2.c: 116:                     break;
   915     0552  2D69               	goto	l1803
   916     0553                     l1797:
   917                           
   918                           ;test2.c: 118:                     PORTD = 0x07;
   919     0553  3007               	movlw	7
   920     0554  0088               	movwf	8	;volatile
   921                           
   922                           ;test2.c: 119:                     break;
   923     0555  2D69               	goto	l1803
   924     0556                     l1799:
   925                           
   926                           ;test2.c: 121:                     PORTD = 0x01;
   927     0556  3001               	movlw	1
   928     0557  0088               	movwf	8	;volatile
   929                           
   930                           ;test2.c: 122:             }
   931     0558  2D69               	goto	l1803
   932     0559                     l1801:
   933     0559  085D               	movf	_switchRitm,w
   934     055A  00D4               	movwf	??_main
   935     055B  01D5               	clrf	??_main+1
   936                           
   937                           ; Switch on 2 bytes has been partitioned into a top level switch of size 1, and 1 sub-sw
      +                          itches
   938                           ; Switch size 1, requested type "simple"
   939                           ; Number of cases is 1, Range of values is 0 to 0
   940                           ; switch strategies available:
   941                           ; Name         Instructions Cycles
   942                           ; simple_byte            4     3 (average)
   943                           ; direct_byte           11     8 (fixed)
   944                           ; jumptable            260     6 (fixed)
   945                           ;	Chosen strategy is simple_byte
   946     055C  0855               	movf	??_main+1,w
   947     055D  3A00               	xorlw	0	; case 0
   948     055E  1903               	skipnz
   949     055F  2D61               	goto	l1855
   950     0560  2D56               	goto	l1799
   951     0561                     l1855:
   952                           
   953                           ; Switch size 1, requested type "simple"
   954                           ; Number of cases is 2, Range of values is 2 to 3
   955                           ; switch strategies available:
   956                           ; Name         Instructions Cycles
   957                           ; simple_byte            7     4 (average)
   958                           ; direct_byte           17    11 (fixed)
   959                           ; jumptable            263     9 (fixed)
   960                           ;	Chosen strategy is simple_byte
   961     0561  0854               	movf	??_main,w
   962     0562  3A02               	xorlw	2	; case 2
   963     0563  1903               	skipnz
   964     0564  2D50               	goto	l1795
   965     0565  3A01               	xorlw	1	; case 3
   966     0566  1903               	skipnz
   967     0567  2D53               	goto	l1797
   968     0568  2D56               	goto	l1799
   969     0569                     l1803:
   970                           
   971                           ;test2.c: 123:             soundPlay(notes[i], switchRitm*100*duration[i]);
   972     0569  085D               	movf	_switchRitm,w
   973     056A  00D4               	movwf	??_main
   974     056B  01D5               	clrf	??_main+1
   975     056C  0854               	movf	??_main,w
   976     056D  00F3               	movwf	___wmul@multiplier
   977     056E  0855               	movf	??_main+1,w
   978     056F  00F4               	movwf	___wmul@multiplier+1
   979     0570  085A               	movf	main@i,w
   980     0571  3EA0               	addlw	(low (_duration| 0))& (0+255)
   981     0572  0084               	movwf	4
   982     0573  1383               	bcf	3,7	;select IRP bank1
   983     0574  0800               	movf	0,w
   984     0575  00D6               	movwf	??_main+2
   985     0576  01D7               	clrf	??_main+3
   986     0577  0856               	movf	??_main+2,w
   987     0578  00F5               	movwf	___wmul@multiplicand
   988     0579  0857               	movf	??_main+3,w
   989     057A  00F6               	movwf	___wmul@multiplicand+1
   990     057B  120A  118A  26DA  120A  118A  	fcall	___wmul
   991     0580  0874               	movf	?___wmul+1,w
   992     0581  1283               	bcf	3,5	;RP0=0, select bank0
   993     0582  1303               	bcf	3,6	;RP1=0, select bank0
   994     0583  00D9               	movwf	_main$879+1
   995     0584  0873               	movf	?___wmul,w
   996     0585  00D8               	movwf	_main$879
   997     0586                     l1805:
   998                           
   999                           ;test2.c: 123:             soundPlay(notes[i], switchRitm*100*duration[i]);
  1000     0586  085A               	movf	main@i,w
  1001     0587  00D4               	movwf	??_main
  1002     0588  0754               	addwf	??_main,w
  1003     0589  3E01               	addlw	low ((_notes-__stringbase)| (0+32768))
  1004     058A  0084               	movwf	4
  1005     058B  120A  118A  2700  120A  118A  	fcall	stringdir
  1006     0590  00CA               	movwf	soundPlay@freq
  1007     0591  120A  118A  2700  120A  118A  	fcall	stringdir
  1008     0596  00CB               	movwf	soundPlay@freq+1
  1009     0597  0859               	movf	_main$879+1,w
  1010     0598  00F4               	movwf	___wmul@multiplier+1
  1011     0599  0858               	movf	_main$879,w
  1012     059A  00F3               	movwf	___wmul@multiplier
  1013     059B  3064               	movlw	100
  1014     059C  00F5               	movwf	___wmul@multiplicand
  1015     059D  3000               	movlw	0
  1016     059E  00F6               	movwf	___wmul@multiplicand+1
  1017     059F  120A  118A  26DA  120A  118A  	fcall	___wmul
  1018     05A4  0874               	movf	?___wmul+1,w
  1019     05A5  1283               	bcf	3,5	;RP0=0, select bank0
  1020     05A6  1303               	bcf	3,6	;RP1=0, select bank0
  1021     05A7  00CD               	movwf	soundPlay@duration+1
  1022     05A8  0873               	movf	?___wmul,w
  1023     05A9  00CC               	movwf	soundPlay@duration
  1024     05AA  120A  118A  2452  120A  118A  	fcall	_soundPlay
  1025     05AF                     l1807:
  1026                           
  1027                           ;test2.c: 124:             _delay((unsigned long)((50)*(20000000/4000.0)));
  1028     05AF  3002               	movlw	2
  1029     05B0  1283               	bcf	3,5	;RP0=0, select bank0
  1030     05B1  1303               	bcf	3,6	;RP1=0, select bank0
  1031     05B2  00D6               	movwf	??_main+2
  1032     05B3  3045               	movlw	69
  1033     05B4  00D5               	movwf	??_main+1
  1034     05B5  30A9               	movlw	169
  1035     05B6  00D4               	movwf	??_main
  1036     05B7                     u2257:
  1037     05B7  0BD4               	decfsz	??_main,f
  1038     05B8  2DB7               	goto	u2257
  1039     05B9  0BD5               	decfsz	??_main+1,f
  1040     05BA  2DB7               	goto	u2257
  1041     05BB  0BD6               	decfsz	??_main+2,f
  1042     05BC  2DB7               	goto	u2257
  1043     05BD                     l1809:
  1044                           
  1045                           ;test2.c: 125:             }
  1046     05BD  3001               	movlw	1
  1047     05BE  00FF               	movwf	btemp+1
  1048     05BF  087F               	movf	btemp+1,w
  1049     05C0  1283               	bcf	3,5	;RP0=0, select bank0
  1050     05C1  1303               	bcf	3,6	;RP1=0, select bank0
  1051     05C2  07DA               	addwf	main@i,f
  1052     05C3                     l1811:
  1053     05C3  3041               	movlw	65
  1054     05C4  025A               	subwf	main@i,w
  1055     05C5  1C03               	skipc
  1056     05C6  2DC8               	goto	u2241
  1057     05C7  2DC9               	goto	u2240
  1058     05C8                     u2241:
  1059     05C8  2D4B               	goto	l76
  1060     05C9                     u2240:
  1061     05C9                     l1813:
  1062                           
  1063                           ;test2.c: 126:             _delay((unsigned long)((3000)*(20000000/4000.0)));
  1064     05C9  304D               	movlw	77
  1065     05CA  1283               	bcf	3,5	;RP0=0, select bank0
  1066     05CB  1303               	bcf	3,6	;RP1=0, select bank0
  1067     05CC  00D6               	movwf	??_main+2
  1068     05CD  3019               	movlw	25
  1069     05CE  00D5               	movwf	??_main+1
  1070     05CF  304F               	movlw	79
  1071     05D0  00D4               	movwf	??_main
  1072     05D1                     u2267:
  1073     05D1  0BD4               	decfsz	??_main,f
  1074     05D2  2DD1               	goto	u2267
  1075     05D3  0BD5               	decfsz	??_main+1,f
  1076     05D4  2DD1               	goto	u2267
  1077     05D5  0BD6               	decfsz	??_main+2,f
  1078     05D6  2DD1               	goto	u2267
  1079                           
  1080                           ;test2.c: 127:         }
  1081     05D7  2D44               	goto	l1785
  1082     05D8                     l1815:
  1083                           
  1084                           ;test2.c: 129:             PORTD = 0x00;
  1085     05D8  0188               	clrf	8	;volatile
  1086     05D9                     l1817:
  1087                           
  1088                           ;test2.c: 130:             switchRitm = 1;
  1089     05D9  01DD               	clrf	_switchRitm
  1090     05DA  0ADD               	incf	_switchRitm,f
  1091     05DB  2D44               	goto	l1785
  1092     05DC  120A  118A  280E   	ljmp	start
  1093     05DF                     __end_of_main:
  1094                           
  1095                           	psect	text1
  1096     0452                     __ptext1:	
  1097 ;; *************** function _soundPlay *****************
  1098 ;; Defined at:
  1099 ;;		line 64 in file "test2.c"
  1100 ;; Parameters:    Size  Location     Type
  1101 ;;  freq            2   42[BANK0 ] unsigned int 
  1102 ;;  duration        2   44[BANK0 ] unsigned int 
  1103 ;; Auto vars:     Size  Location     Type
  1104 ;;  period          4   48[BANK0 ] float 
  1105 ;; Return value:  Size  Location     Type
  1106 ;;                  1    wreg      void 
  1107 ;; Registers used:
  1108 ;;		wreg, status,2, status,0, btemp+1, pclath, cstack
  1109 ;; Tracked objects:
  1110 ;;		On entry : 0/0
  1111 ;;		On exit  : 0/0
  1112 ;;		Unchanged: 0/0
  1113 ;; Data sizes:     COMMON   BANK0   BANK1   BANK3   BANK2
  1114 ;;      Params:         0       4       0       0       0
  1115 ;;      Locals:         0       4       0       0       0
  1116 ;;      Temps:          0       2       0       0       0
  1117 ;;      Totals:         0      10       0       0       0
  1118 ;;Total ram usage:       10 bytes
  1119 ;; Hardware stack levels used: 1
  1120 ;; Hardware stack levels required when called: 3
  1121 ;; This function calls:
  1122 ;;		_Delay_Ms
  1123 ;;		___fldiv
  1124 ;;		___flsub
  1125 ;;		___fltol
  1126 ;;		___xxtofl
  1127 ;; This function is called by:
  1128 ;;		_main
  1129 ;; This function uses a non-reentrant model
  1130 ;;
  1131                           
  1132     0452                     _soundPlay:	
  1133                           ;psect for function _soundPlay
  1134                           
  1135     0452                     l1709:	
  1136                           ;incstack = 0
  1137                           ; Regs used in _soundPlay: [wreg+status,2+status,0+btemp+1+pclath+cstack]
  1138                           
  1139                           
  1140                           ;test2.c: 65:     float period;;test2.c: 66:     period = 400000.0/freq;
  1141     0452  1283               	bcf	3,5	;RP0=0, select bank0
  1142     0453  1303               	bcf	3,6	;RP1=0, select bank0
  1143     0454  084A               	movf	soundPlay@freq,w
  1144     0455  00F3               	movwf	___xxtofl@val
  1145     0456  084B               	movf	soundPlay@freq+1,w
  1146     0457  00F4               	movwf	___xxtofl@val+1
  1147     0458  01F5               	clrf	___xxtofl@val+2
  1148     0459  01F6               	clrf	___xxtofl@val+3
  1149     045A  3000               	movlw	0
  1150     045B  120A  118A  25DF  120A  118A  	fcall	___xxtofl
  1151     0460  0876               	movf	?___xxtofl+3,w
  1152     0461  1283               	bcf	3,5	;RP0=0, select bank0
  1153     0462  1303               	bcf	3,6	;RP1=0, select bank0
  1154     0463  00A9               	movwf	___fldiv@a+3
  1155     0464  0875               	movf	?___xxtofl+2,w
  1156     0465  00A8               	movwf	___fldiv@a+2
  1157     0466  0874               	movf	?___xxtofl+1,w
  1158     0467  00A7               	movwf	___fldiv@a+1
  1159     0468  0873               	movf	?___xxtofl,w
  1160     0469  00A6               	movwf	___fldiv@a
  1161     046A  3048               	movlw	72
  1162     046B  00AD               	movwf	___fldiv@b+3
  1163     046C  30C3               	movlw	195
  1164     046D  00AC               	movwf	___fldiv@b+2
  1165     046E  3050               	movlw	80
  1166     046F  00AB               	movwf	___fldiv@b+1
  1167     0470  3000               	movlw	0
  1168     0471  00AA               	movwf	___fldiv@b
  1169     0472  120A  118A  2283  120A  118A  	fcall	___fldiv
  1170     0477  1283               	bcf	3,5	;RP0=0, select bank0
  1171     0478  1303               	bcf	3,6	;RP1=0, select bank0
  1172     0479  0829               	movf	?___fldiv+3,w
  1173     047A  00D3               	movwf	soundPlay@period+3
  1174     047B  0828               	movf	?___fldiv+2,w
  1175     047C  00D2               	movwf	soundPlay@period+2
  1176     047D  0827               	movf	?___fldiv+1,w
  1177     047E  00D1               	movwf	soundPlay@period+1
  1178     047F  0826               	movf	?___fldiv,w
  1179     0480  00D0               	movwf	soundPlay@period
  1180                           
  1181                           ;test2.c: 67:     period = 65536 - period;
  1182     0481  0853               	movf	soundPlay@period+3,w
  1183     0482  00AF               	movwf	___flsub@a+3
  1184     0483  0852               	movf	soundPlay@period+2,w
  1185     0484  00AE               	movwf	___flsub@a+2
  1186     0485  0851               	movf	soundPlay@period+1,w
  1187     0486  00AD               	movwf	___flsub@a+1
  1188     0487  0850               	movf	soundPlay@period,w
  1189     0488  00AC               	movwf	___flsub@a
  1190     0489  3047               	movlw	71
  1191     048A  00B3               	movwf	___flsub@b+3
  1192     048B  3080               	movlw	128
  1193     048C  00B2               	movwf	___flsub@b+2
  1194     048D  3000               	movlw	0
  1195     048E  00B1               	movwf	___flsub@b+1
  1196     048F  3000               	movlw	0
  1197     0490  00B0               	movwf	___flsub@b
  1198     0491  120A  158A  27A8  120A  118A  	fcall	___flsub
  1199     0496  1283               	bcf	3,5	;RP0=0, select bank0
  1200     0497  1303               	bcf	3,6	;RP1=0, select bank0
  1201     0498  082F               	movf	?___flsub+3,w
  1202     0499  00D3               	movwf	soundPlay@period+3
  1203     049A  082E               	movf	?___flsub+2,w
  1204     049B  00D2               	movwf	soundPlay@period+2
  1205     049C  082D               	movf	?___flsub+1,w
  1206     049D  00D1               	movwf	soundPlay@period+1
  1207     049E  082C               	movf	?___flsub,w
  1208     049F  00D0               	movwf	soundPlay@period
  1209                           
  1210                           ;test2.c: 68:     timerH = (char)(period / 256);
  1211     04A0  0853               	movf	soundPlay@period+3,w
  1212     04A1  00AD               	movwf	___fldiv@b+3
  1213     04A2  0852               	movf	soundPlay@period+2,w
  1214     04A3  00AC               	movwf	___fldiv@b+2
  1215     04A4  0851               	movf	soundPlay@period+1,w
  1216     04A5  00AB               	movwf	___fldiv@b+1
  1217     04A6  0850               	movf	soundPlay@period,w
  1218     04A7  00AA               	movwf	___fldiv@b
  1219     04A8  3043               	movlw	67
  1220     04A9  00A9               	movwf	___fldiv@a+3
  1221     04AA  3080               	movlw	128
  1222     04AB  00A8               	movwf	___fldiv@a+2
  1223     04AC  3000               	movlw	0
  1224     04AD  00A7               	movwf	___fldiv@a+1
  1225     04AE  3000               	movlw	0
  1226     04AF  00A6               	movwf	___fldiv@a
  1227     04B0  120A  118A  2283  120A  118A  	fcall	___fldiv
  1228     04B5  1283               	bcf	3,5	;RP0=0, select bank0
  1229     04B6  1303               	bcf	3,6	;RP1=0, select bank0
  1230     04B7  0829               	movf	?___fldiv+3,w
  1231     04B8  00C3               	movwf	___fltol@f1+3
  1232     04B9  0828               	movf	?___fldiv+2,w
  1233     04BA  00C2               	movwf	___fltol@f1+2
  1234     04BB  0827               	movf	?___fldiv+1,w
  1235     04BC  00C1               	movwf	___fltol@f1+1
  1236     04BD  0826               	movf	?___fldiv,w
  1237     04BE  00C0               	movwf	___fltol@f1
  1238     04BF  120A  118A  2788  120A  118A  	fcall	___fltol
  1239     04C4  1283               	bcf	3,5	;RP0=0, select bank0
  1240     04C5  1303               	bcf	3,6	;RP1=0, select bank0
  1241     04C6  0840               	movf	?___fltol,w
  1242     04C7  00DC               	movwf	_timerH
  1243                           
  1244                           ;test2.c: 69:     timerL = (char)(period - 256 * timerH);
  1245     04C8  0853               	movf	soundPlay@period+3,w
  1246     04C9  00B3               	movwf	___flsub@b+3
  1247     04CA  0852               	movf	soundPlay@period+2,w
  1248     04CB  00B2               	movwf	___flsub@b+2
  1249     04CC  0851               	movf	soundPlay@period+1,w
  1250     04CD  00B1               	movwf	___flsub@b+1
  1251     04CE  0850               	movf	soundPlay@period,w
  1252     04CF  00B0               	movwf	___flsub@b
  1253     04D0  085C               	movf	_timerH,w
  1254     04D1  00CE               	movwf	??_soundPlay
  1255     04D2  01CF               	clrf	??_soundPlay+1
  1256     04D3  084E               	movf	??_soundPlay,w
  1257     04D4  00CF               	movwf	??_soundPlay+1
  1258     04D5  01CE               	clrf	??_soundPlay
  1259     04D6  084E               	movf	??_soundPlay,w
  1260     04D7  00F3               	movwf	___xxtofl@val
  1261     04D8  084F               	movf	??_soundPlay+1,w
  1262     04D9  00F4               	movwf	___xxtofl@val+1
  1263     04DA  3000               	movlw	0
  1264     04DB  1BF4               	btfsc	___xxtofl@val+1,7
  1265     04DC  30FF               	movlw	255
  1266     04DD  00F5               	movwf	___xxtofl@val+2
  1267     04DE  00F6               	movwf	___xxtofl@val+3
  1268     04DF  3001               	movlw	1
  1269     04E0  120A  118A  25DF  120A  118A  	fcall	___xxtofl
  1270     04E5  0876               	movf	?___xxtofl+3,w
  1271     04E6  1283               	bcf	3,5	;RP0=0, select bank0
  1272     04E7  1303               	bcf	3,6	;RP1=0, select bank0
  1273     04E8  00AF               	movwf	___flsub@a+3
  1274     04E9  0875               	movf	?___xxtofl+2,w
  1275     04EA  00AE               	movwf	___flsub@a+2
  1276     04EB  0874               	movf	?___xxtofl+1,w
  1277     04EC  00AD               	movwf	___flsub@a+1
  1278     04ED  0873               	movf	?___xxtofl,w
  1279     04EE  00AC               	movwf	___flsub@a
  1280     04EF  120A  158A  27A8  120A  118A  	fcall	___flsub
  1281     04F4  1283               	bcf	3,5	;RP0=0, select bank0
  1282     04F5  1303               	bcf	3,6	;RP1=0, select bank0
  1283     04F6  082F               	movf	?___flsub+3,w
  1284     04F7  00C3               	movwf	___fltol@f1+3
  1285     04F8  082E               	movf	?___flsub+2,w
  1286     04F9  00C2               	movwf	___fltol@f1+2
  1287     04FA  082D               	movf	?___flsub+1,w
  1288     04FB  00C1               	movwf	___fltol@f1+1
  1289     04FC  082C               	movf	?___flsub,w
  1290     04FD  00C0               	movwf	___fltol@f1
  1291     04FE  120A  118A  2788  120A  118A  	fcall	___fltol
  1292     0503  1283               	bcf	3,5	;RP0=0, select bank0
  1293     0504  1303               	bcf	3,6	;RP1=0, select bank0
  1294     0505  0840               	movf	?___fltol,w
  1295     0506  00DB               	movwf	_timerL
  1296     0507                     l1711:
  1297                           
  1298                           ;test2.c: 70:     TMR1H = timerH;
  1299     0507  085C               	movf	_timerH,w
  1300     0508  008F               	movwf	15	;volatile
  1301     0509                     l1713:
  1302                           
  1303                           ;test2.c: 71:     TMR1L = timerL;
  1304     0509  085B               	movf	_timerL,w
  1305     050A  008E               	movwf	14	;volatile
  1306     050B                     l1715:
  1307                           
  1308                           ;test2.c: 72:     T1CONbits.TMR1ON = 1;
  1309     050B  1410               	bsf	16,0	;volatile
  1310     050C                     l1717:
  1311                           
  1312                           ;test2.c: 73:     Delay_Ms(duration);
  1313     050C  084D               	movf	soundPlay@duration+1,w
  1314     050D  00F4               	movwf	Delay_Ms@s+1
  1315     050E  084C               	movf	soundPlay@duration,w
  1316     050F  00F3               	movwf	Delay_Ms@s
  1317     0510  120A  158A  278C  120A  118A  	fcall	_Delay_Ms
  1318     0515                     l1719:
  1319                           
  1320                           ;test2.c: 74:     T1CONbits.TMR1ON = 0;
  1321     0515  1283               	bcf	3,5	;RP0=0, select bank0
  1322     0516  1303               	bcf	3,6	;RP1=0, select bank0
  1323     0517  1010               	bcf	16,0	;volatile
  1324     0518                     l69:
  1325     0518  0008               	return
  1326     0519                     __end_of_soundPlay:
  1327                           
  1328                           	psect	text2
  1329     05DF                     __ptext2:	
  1330 ;; *************** function ___xxtofl *****************
  1331 ;; Defined at:
  1332 ;;		line 10 in file "E:\XC8 Compiler\pic\sources\c90\common\xxtofl.c"
  1333 ;; Parameters:    Size  Location     Type
  1334 ;;  sign            1    wreg     unsigned char 
  1335 ;;  val             4    3[COMMON] long 
  1336 ;; Auto vars:     Size  Location     Type
  1337 ;;  sign            1    0[BANK0 ] unsigned char 
  1338 ;;  arg             4    2[BANK0 ] unsigned long 
  1339 ;;  exp             1    1[BANK0 ] unsigned char 
  1340 ;; Return value:  Size  Location     Type
  1341 ;;                  4    3[COMMON] unsigned char 
  1342 ;; Registers used:
  1343 ;;		wreg, status,2, status,0, btemp+1
  1344 ;; Tracked objects:
  1345 ;;		On entry : 0/0
  1346 ;;		On exit  : 0/0
  1347 ;;		Unchanged: 0/0
  1348 ;; Data sizes:     COMMON   BANK0   BANK1   BANK3   BANK2
  1349 ;;      Params:         4       0       0       0       0
  1350 ;;      Locals:         0       6       0       0       0
  1351 ;;      Temps:          4       0       0       0       0
  1352 ;;      Totals:         8       6       0       0       0
  1353 ;;Total ram usage:       14 bytes
  1354 ;; Hardware stack levels used: 1
  1355 ;; Hardware stack levels required when called: 1
  1356 ;; This function calls:
  1357 ;;		Nothing
  1358 ;; This function is called by:
  1359 ;;		_soundPlay
  1360 ;; This function uses a non-reentrant model
  1361 ;;
  1362                           
  1363     05DF                     ___xxtofl:	
  1364                           ;psect for function ___xxtofl
  1365                           
  1366                           
  1367                           ;incstack = 0
  1368                           ; Regs used in ___xxtofl: [wreg+status,2+status,0+btemp+1]
  1369                           ;___xxtofl@sign stored from wreg
  1370     05DF  1283               	bcf	3,5	;RP0=0, select bank0
  1371     05E0  1303               	bcf	3,6	;RP1=0, select bank0
  1372     05E1  00A0               	movwf	___xxtofl@sign
  1373     05E2                     l1661:
  1374     05E2  0820               	movf	___xxtofl@sign,w
  1375     05E3  1903               	btfsc	3,2
  1376     05E4  2DE6               	goto	u1991
  1377     05E5  2DE7               	goto	u1990
  1378     05E6                     u1991:
  1379     05E6  2DFB               	goto	l1667
  1380     05E7                     u1990:
  1381     05E7                     l1663:
  1382     05E7  1FF6               	btfss	___xxtofl@val+3,7
  1383     05E8  2DEA               	goto	u2001
  1384     05E9  2DEB               	goto	u2000
  1385     05EA                     u2001:
  1386     05EA  2DFB               	goto	l1667
  1387     05EB                     u2000:
  1388     05EB                     l1665:
  1389     05EB  0973               	comf	___xxtofl@val,w
  1390     05EC  00A2               	movwf	___xxtofl@arg
  1391     05ED  0974               	comf	___xxtofl@val+1,w
  1392     05EE  00A3               	movwf	___xxtofl@arg+1
  1393     05EF  0975               	comf	___xxtofl@val+2,w
  1394     05F0  00A4               	movwf	___xxtofl@arg+2
  1395     05F1  0976               	comf	___xxtofl@val+3,w
  1396     05F2  00A5               	movwf	___xxtofl@arg+3
  1397     05F3  0AA2               	incf	___xxtofl@arg,f
  1398     05F4  1903               	skipnz
  1399     05F5  0AA3               	incf	___xxtofl@arg+1,f
  1400     05F6  1903               	skipnz
  1401     05F7  0AA4               	incf	___xxtofl@arg+2,f
  1402     05F8  1903               	skipnz
  1403     05F9  0AA5               	incf	___xxtofl@arg+3,f
  1404     05FA  2E03               	goto	l606
  1405     05FB                     l1667:
  1406     05FB  0876               	movf	___xxtofl@val+3,w
  1407     05FC  00A5               	movwf	___xxtofl@arg+3
  1408     05FD  0875               	movf	___xxtofl@val+2,w
  1409     05FE  00A4               	movwf	___xxtofl@arg+2
  1410     05FF  0874               	movf	___xxtofl@val+1,w
  1411     0600  00A3               	movwf	___xxtofl@arg+1
  1412     0601  0873               	movf	___xxtofl@val,w
  1413     0602  00A2               	movwf	___xxtofl@arg
  1414     0603                     l606:
  1415     0603  0876               	movf	___xxtofl@val+3,w
  1416     0604  0475               	iorwf	___xxtofl@val+2,w
  1417     0605  0474               	iorwf	___xxtofl@val+1,w
  1418     0606  0473               	iorwf	___xxtofl@val,w
  1419     0607  1D03               	skipz
  1420     0608  2E0A               	goto	u2011
  1421     0609  2E0B               	goto	u2010
  1422     060A                     u2011:
  1423     060A  2E14               	goto	l1673
  1424     060B                     u2010:
  1425     060B                     l1669:
  1426     060B  3000               	movlw	0
  1427     060C  00F6               	movwf	?___xxtofl+3
  1428     060D  3000               	movlw	0
  1429     060E  00F5               	movwf	?___xxtofl+2
  1430     060F  3000               	movlw	0
  1431     0610  00F4               	movwf	?___xxtofl+1
  1432     0611  3000               	movlw	0
  1433     0612  00F3               	movwf	?___xxtofl
  1434     0613  2E98               	goto	l608
  1435     0614                     l1673:
  1436     0614  3096               	movlw	150
  1437     0615  00A1               	movwf	___xxtofl@exp
  1438     0616  2E24               	goto	l1679
  1439     0617                     l1675:
  1440     0617  3001               	movlw	1
  1441     0618  00FF               	movwf	btemp+1
  1442     0619  087F               	movf	btemp+1,w
  1443     061A  07A1               	addwf	___xxtofl@exp,f
  1444     061B                     l1677:
  1445     061B  3001               	movlw	1
  1446     061C                     u2025:
  1447     061C  1003               	clrc
  1448     061D  0CA5               	rrf	___xxtofl@arg+3,f
  1449     061E  0CA4               	rrf	___xxtofl@arg+2,f
  1450     061F  0CA3               	rrf	___xxtofl@arg+1,f
  1451     0620  0CA2               	rrf	___xxtofl@arg,f
  1452     0621  3EFF               	addlw	-1
  1453     0622  1D03               	skipz
  1454     0623  2E1C               	goto	u2025
  1455     0624                     l1679:
  1456     0624  30FE               	movlw	254
  1457     0625  0525               	andwf	___xxtofl@arg+3,w
  1458     0626  1D03               	btfss	3,2
  1459     0627  2E29               	goto	u2031
  1460     0628  2E2A               	goto	u2030
  1461     0629                     u2031:
  1462     0629  2E17               	goto	l1675
  1463     062A                     u2030:
  1464     062A  2E46               	goto	l1687
  1465     062B                     l1681:
  1466     062B  3001               	movlw	1
  1467     062C  00FF               	movwf	btemp+1
  1468     062D  087F               	movf	btemp+1,w
  1469     062E  07A1               	addwf	___xxtofl@exp,f
  1470     062F                     l1683:
  1471     062F  3001               	movlw	1
  1472     0630  07A2               	addwf	___xxtofl@arg,f
  1473     0631  3000               	movlw	0
  1474     0632  1803               	skipnc
  1475     0633  3001               	movlw	1
  1476     0634  07A3               	addwf	___xxtofl@arg+1,f
  1477     0635  3000               	movlw	0
  1478     0636  1803               	skipnc
  1479     0637  3001               	movlw	1
  1480     0638  07A4               	addwf	___xxtofl@arg+2,f
  1481     0639  3000               	movlw	0
  1482     063A  1803               	skipnc
  1483     063B  3001               	movlw	1
  1484     063C  07A5               	addwf	___xxtofl@arg+3,f
  1485     063D                     l1685:
  1486     063D  3001               	movlw	1
  1487     063E                     u2045:
  1488     063E  1003               	clrc
  1489     063F  0CA5               	rrf	___xxtofl@arg+3,f
  1490     0640  0CA4               	rrf	___xxtofl@arg+2,f
  1491     0641  0CA3               	rrf	___xxtofl@arg+1,f
  1492     0642  0CA2               	rrf	___xxtofl@arg,f
  1493     0643  3EFF               	addlw	-1
  1494     0644  1D03               	skipz
  1495     0645  2E3E               	goto	u2045
  1496     0646                     l1687:
  1497     0646  30FF               	movlw	255
  1498     0647  0525               	andwf	___xxtofl@arg+3,w
  1499     0648  1D03               	btfss	3,2
  1500     0649  2E4B               	goto	u2051
  1501     064A  2E4C               	goto	u2050
  1502     064B                     u2051:
  1503     064B  2E2B               	goto	l1681
  1504     064C                     u2050:
  1505     064C  2E58               	goto	l1691
  1506     064D                     l1689:
  1507     064D  3001               	movlw	1
  1508     064E  02A1               	subwf	___xxtofl@exp,f
  1509     064F  3001               	movlw	1
  1510     0650  00F7               	movwf	??___xxtofl
  1511     0651                     u2065:
  1512     0651  1003               	clrc
  1513     0652  0DA2               	rlf	___xxtofl@arg,f
  1514     0653  0DA3               	rlf	___xxtofl@arg+1,f
  1515     0654  0DA4               	rlf	___xxtofl@arg+2,f
  1516     0655  0DA5               	rlf	___xxtofl@arg+3,f
  1517     0656  0BF7               	decfsz	??___xxtofl,f
  1518     0657  2E51               	goto	u2065
  1519     0658                     l1691:
  1520     0658  1BA4               	btfsc	___xxtofl@arg+2,7
  1521     0659  2E5B               	goto	u2071
  1522     065A  2E5C               	goto	u2070
  1523     065B                     u2071:
  1524     065B  2E62               	goto	l619
  1525     065C                     u2070:
  1526     065C                     l1693:
  1527     065C  3002               	movlw	2
  1528     065D  0221               	subwf	___xxtofl@exp,w
  1529     065E  1803               	skipnc
  1530     065F  2E61               	goto	u2081
  1531     0660  2E62               	goto	u2080
  1532     0661                     u2081:
  1533     0661  2E4D               	goto	l1689
  1534     0662                     u2080:
  1535     0662                     l619:
  1536     0662  1821               	btfsc	___xxtofl@exp,0
  1537     0663  2E65               	goto	u2091
  1538     0664  2E66               	goto	u2090
  1539     0665                     u2091:
  1540     0665  2E6E               	goto	l620
  1541     0666                     u2090:
  1542     0666                     l1695:
  1543     0666  30FF               	movlw	255
  1544     0667  05A2               	andwf	___xxtofl@arg,f
  1545     0668  30FF               	movlw	255
  1546     0669  05A3               	andwf	___xxtofl@arg+1,f
  1547     066A  307F               	movlw	127
  1548     066B  05A4               	andwf	___xxtofl@arg+2,f
  1549     066C  30FF               	movlw	255
  1550     066D  05A5               	andwf	___xxtofl@arg+3,f
  1551     066E                     l620:
  1552     066E  1003               	clrc
  1553     066F  0CA1               	rrf	___xxtofl@exp,f
  1554     0670                     l1697:
  1555     0670  0821               	movf	___xxtofl@exp,w
  1556     0671  00F7               	movwf	??___xxtofl
  1557     0672  01F8               	clrf	??___xxtofl+1
  1558     0673  01F9               	clrf	??___xxtofl+2
  1559     0674  01FA               	clrf	??___xxtofl+3
  1560     0675  3018               	movlw	24
  1561     0676                     u2105:
  1562     0676  1003               	clrc
  1563     0677  0DF7               	rlf	??___xxtofl,f
  1564     0678  0DF8               	rlf	??___xxtofl+1,f
  1565     0679  0DF9               	rlf	??___xxtofl+2,f
  1566     067A  0DFA               	rlf	??___xxtofl+3,f
  1567     067B                     u2100:
  1568     067B  3EFF               	addlw	-1
  1569     067C  1D03               	skipz
  1570     067D  2E76               	goto	u2105
  1571     067E  0877               	movf	??___xxtofl,w
  1572     067F  04A2               	iorwf	___xxtofl@arg,f
  1573     0680  0878               	movf	??___xxtofl+1,w
  1574     0681  04A3               	iorwf	___xxtofl@arg+1,f
  1575     0682  0879               	movf	??___xxtofl+2,w
  1576     0683  04A4               	iorwf	___xxtofl@arg+2,f
  1577     0684  087A               	movf	??___xxtofl+3,w
  1578     0685  04A5               	iorwf	___xxtofl@arg+3,f
  1579     0686                     l1699:
  1580     0686  0820               	movf	___xxtofl@sign,w
  1581     0687  1903               	btfsc	3,2
  1582     0688  2E8A               	goto	u2111
  1583     0689  2E8B               	goto	u2110
  1584     068A                     u2111:
  1585     068A  2E90               	goto	l1705
  1586     068B                     u2110:
  1587     068B                     l1701:
  1588     068B  1FF6               	btfss	___xxtofl@val+3,7
  1589     068C  2E8E               	goto	u2121
  1590     068D  2E8F               	goto	u2120
  1591     068E                     u2121:
  1592     068E  2E90               	goto	l1705
  1593     068F                     u2120:
  1594     068F                     l1703:
  1595     068F  17A5               	bsf	___xxtofl@arg+3,7
  1596     0690                     l1705:
  1597     0690  0825               	movf	___xxtofl@arg+3,w
  1598     0691  00F6               	movwf	?___xxtofl+3
  1599     0692  0824               	movf	___xxtofl@arg+2,w
  1600     0693  00F5               	movwf	?___xxtofl+2
  1601     0694  0823               	movf	___xxtofl@arg+1,w
  1602     0695  00F4               	movwf	?___xxtofl+1
  1603     0696  0822               	movf	___xxtofl@arg,w
  1604     0697  00F3               	movwf	?___xxtofl
  1605     0698                     l608:
  1606     0698  0008               	return
  1607     0699                     __end_of___xxtofl:
  1608                           
  1609                           	psect	text3
  1610     0788                     __ptext3:	
  1611 ;; *************** function ___fltol *****************
  1612 ;; Defined at:
  1613 ;;		line 43 in file "E:\XC8 Compiler\pic\sources\c90\common\fltol.c"
  1614 ;; Parameters:    Size  Location     Type
  1615 ;;  f1              4   32[BANK0 ] unsigned char 
  1616 ;; Auto vars:     Size  Location     Type
  1617 ;;  exp1            1   41[BANK0 ] unsigned char 
  1618 ;;  sign1           1   40[BANK0 ] unsigned char 
  1619 ;; Return value:  Size  Location     Type
  1620 ;;                  4   32[BANK0 ] long 
  1621 ;; Registers used:
  1622 ;;		wreg, status,2, status,0, btemp+1
  1623 ;; Tracked objects:
  1624 ;;		On entry : 0/0
  1625 ;;		On exit  : 0/0
  1626 ;;		Unchanged: 0/0
  1627 ;; Data sizes:     COMMON   BANK0   BANK1   BANK3   BANK2
  1628 ;;      Params:         0       4       0       0       0
  1629 ;;      Locals:         0       2       0       0       0
  1630 ;;      Temps:          0       4       0       0       0
  1631 ;;      Totals:         0      10       0       0       0
  1632 ;;Total ram usage:       10 bytes
  1633 ;; Hardware stack levels used: 1
  1634 ;; Hardware stack levels required when called: 1
  1635 ;; This function calls:
  1636 ;;		Nothing
  1637 ;; This function is called by:
  1638 ;;		_soundPlay
  1639 ;; This function uses a non-reentrant model
  1640 ;;
  1641                           
  1642     0788                     ___fltol:	
  1643                           ;psect for function ___fltol
  1644                           
  1645     0788                     l1471:	
  1646                           ;incstack = 0
  1647                           ; Regs used in ___fltol: [wreg+status,2+status,0+btemp+1]
  1648                           
  1649     0788  1003               	clrc
  1650     0789  1283               	bcf	3,5	;RP0=0, select bank0
  1651     078A  1303               	bcf	3,6	;RP1=0, select bank0
  1652     078B  0D42               	rlf	___fltol@f1+2,w
  1653     078C  0D43               	rlf	___fltol@f1+3,w
  1654     078D  00C9               	movwf	___fltol@exp1
  1655     078E  0849               	movf	___fltol@exp1,w
  1656     078F  1D03               	btfss	3,2
  1657     0790  2F92               	goto	u1601
  1658     0791  2F93               	goto	u1600
  1659     0792                     u1601:
  1660     0792  2F9C               	goto	l1477
  1661     0793                     u1600:
  1662     0793                     l1473:
  1663     0793  3000               	movlw	0
  1664     0794  00C3               	movwf	?___fltol+3
  1665     0795  3000               	movlw	0
  1666     0796  00C2               	movwf	?___fltol+2
  1667     0797  3000               	movlw	0
  1668     0798  00C1               	movwf	?___fltol+1
  1669     0799  3000               	movlw	0
  1670     079A  00C0               	movwf	?___fltol
  1671     079B  2FFF               	goto	l359
  1672     079C                     l1477:
  1673     079C  0840               	movf	___fltol@f1,w
  1674     079D  00C4               	movwf	??___fltol
  1675     079E  0841               	movf	___fltol@f1+1,w
  1676     079F  00C5               	movwf	??___fltol+1
  1677     07A0  0842               	movf	___fltol@f1+2,w
  1678     07A1  00C6               	movwf	??___fltol+2
  1679     07A2  0843               	movf	___fltol@f1+3,w
  1680     07A3  00C7               	movwf	??___fltol+3
  1681     07A4  301F               	movlw	31
  1682     07A5                     u1615:
  1683     07A5  1003               	clrc
  1684     07A6  0CC7               	rrf	??___fltol+3,f
  1685     07A7  0CC6               	rrf	??___fltol+2,f
  1686     07A8  0CC5               	rrf	??___fltol+1,f
  1687     07A9  0CC4               	rrf	??___fltol,f
  1688     07AA                     u1610:
  1689     07AA  3EFF               	addlw	-1
  1690     07AB  1D03               	skipz
  1691     07AC  2FA5               	goto	u1615
  1692     07AD  0844               	movf	??___fltol,w
  1693     07AE  00C8               	movwf	___fltol@sign1
  1694     07AF                     l1479:
  1695     07AF  17C2               	bsf	___fltol@f1+2,7
  1696     07B0                     l1481:
  1697     07B0  30FF               	movlw	255
  1698     07B1  05C0               	andwf	___fltol@f1,f
  1699     07B2  30FF               	movlw	255
  1700     07B3  05C1               	andwf	___fltol@f1+1,f
  1701     07B4  30FF               	movlw	255
  1702     07B5  05C2               	andwf	___fltol@f1+2,f
  1703     07B6  3000               	movlw	0
  1704     07B7  05C3               	andwf	___fltol@f1+3,f
  1705     07B8                     l1483:
  1706     07B8  3096               	movlw	150
  1707     07B9  02C9               	subwf	___fltol@exp1,f
  1708     07BA                     l1485:
  1709     07BA  1FC9               	btfss	___fltol@exp1,7
  1710     07BB  2FBD               	goto	u1621
  1711     07BC  2FBE               	goto	u1620
  1712     07BD                     u1621:
  1713     07BD  2FD8               	goto	l1497
  1714     07BE                     u1620:
  1715     07BE                     l1487:
  1716     07BE  0849               	movf	___fltol@exp1,w
  1717     07BF  3A80               	xorlw	128
  1718     07C0  3E97               	addlw	151
  1719     07C1  1803               	skipnc
  1720     07C2  2FC4               	goto	u1631
  1721     07C3  2FC5               	goto	u1630
  1722     07C4                     u1631:
  1723     07C4  2FC6               	goto	l1493
  1724     07C5                     u1630:
  1725     07C5  2F93               	goto	l1473
  1726     07C6                     l1493:
  1727     07C6  3001               	movlw	1
  1728     07C7                     u1645:
  1729     07C7  1003               	clrc
  1730     07C8  0CC3               	rrf	___fltol@f1+3,f
  1731     07C9  0CC2               	rrf	___fltol@f1+2,f
  1732     07CA  0CC1               	rrf	___fltol@f1+1,f
  1733     07CB  0CC0               	rrf	___fltol@f1,f
  1734     07CC  3EFF               	addlw	-1
  1735     07CD  1D03               	skipz
  1736     07CE  2FC7               	goto	u1645
  1737     07CF                     l1495:
  1738     07CF  3001               	movlw	1
  1739     07D0  00FF               	movwf	btemp+1
  1740     07D1  087F               	movf	btemp+1,w
  1741     07D2  07C9               	addwf	___fltol@exp1,f
  1742     07D3  1D03               	btfss	3,2
  1743     07D4  2FD6               	goto	u1651
  1744     07D5  2FD7               	goto	u1650
  1745     07D6                     u1651:
  1746     07D6  2FC6               	goto	l1493
  1747     07D7                     u1650:
  1748     07D7  2FEF               	goto	l1505
  1749     07D8                     l1497:
  1750     07D8  3020               	movlw	32
  1751     07D9  0249               	subwf	___fltol@exp1,w
  1752     07DA  1C03               	skipc
  1753     07DB  2FDD               	goto	u1661
  1754     07DC  2FDE               	goto	u1660
  1755     07DD                     u1661:
  1756     07DD  2FEA               	goto	l366
  1757     07DE                     u1660:
  1758     07DE  2F93               	goto	l1473
  1759     07DF                     l1503:
  1760     07DF  3001               	movlw	1
  1761     07E0  00C4               	movwf	??___fltol
  1762     07E1                     u1675:
  1763     07E1  1003               	clrc
  1764     07E2  0DC0               	rlf	___fltol@f1,f
  1765     07E3  0DC1               	rlf	___fltol@f1+1,f
  1766     07E4  0DC2               	rlf	___fltol@f1+2,f
  1767     07E5  0DC3               	rlf	___fltol@f1+3,f
  1768     07E6  0BC4               	decfsz	??___fltol,f
  1769     07E7  2FE1               	goto	u1675
  1770     07E8  3001               	movlw	1
  1771     07E9  02C9               	subwf	___fltol@exp1,f
  1772     07EA                     l366:
  1773     07EA  0849               	movf	___fltol@exp1,w
  1774     07EB  1D03               	btfss	3,2
  1775     07EC  2FEE               	goto	u1681
  1776     07ED  2FEF               	goto	u1680
  1777     07EE                     u1681:
  1778     07EE  2FDF               	goto	l1503
  1779     07EF                     u1680:
  1780     07EF                     l1505:
  1781     07EF  0848               	movf	___fltol@sign1,w
  1782     07F0  1903               	btfsc	3,2
  1783     07F1  2FF3               	goto	u1691
  1784     07F2  2FF4               	goto	u1690
  1785     07F3                     u1691:
  1786     07F3  2FFF               	goto	l369
  1787     07F4                     u1690:
  1788     07F4                     l1507:
  1789     07F4  09C0               	comf	___fltol@f1,f
  1790     07F5  09C1               	comf	___fltol@f1+1,f
  1791     07F6  09C2               	comf	___fltol@f1+2,f
  1792     07F7  09C3               	comf	___fltol@f1+3,f
  1793     07F8  0AC0               	incf	___fltol@f1,f
  1794     07F9  1903               	skipnz
  1795     07FA  0AC1               	incf	___fltol@f1+1,f
  1796     07FB  1903               	skipnz
  1797     07FC  0AC2               	incf	___fltol@f1+2,f
  1798     07FD  1903               	skipnz
  1799     07FE  0AC3               	incf	___fltol@f1+3,f
  1800     07FF                     l369:
  1801     07FF                     l359:
  1802     07FF  0008               	return
  1803     0800                     __end_of___fltol:
  1804                           
  1805                           	psect	text4
  1806     0FA8                     __ptext4:	
  1807 ;; *************** function ___flsub *****************
  1808 ;; Defined at:
  1809 ;;		line 242 in file "E:\XC8 Compiler\pic\sources\c90\common\sprcadd.c"
  1810 ;; Parameters:    Size  Location     Type
  1811 ;;  a               4   12[BANK0 ] long 
  1812 ;;  b               4   16[BANK0 ] long 
  1813 ;; Auto vars:     Size  Location     Type
  1814 ;;		None
  1815 ;; Return value:  Size  Location     Type
  1816 ;;                  4   12[BANK0 ] long 
  1817 ;; Registers used:
  1818 ;;		wreg, status,2, status,0, btemp+1, pclath, cstack
  1819 ;; Tracked objects:
  1820 ;;		On entry : 0/0
  1821 ;;		On exit  : 0/0
  1822 ;;		Unchanged: 0/0
  1823 ;; Data sizes:     COMMON   BANK0   BANK1   BANK3   BANK2
  1824 ;;      Params:         0       8       0       0       0
  1825 ;;      Locals:         0       0       0       0       0
  1826 ;;      Temps:          0       0       0       0       0
  1827 ;;      Totals:         0       8       0       0       0
  1828 ;;Total ram usage:        8 bytes
  1829 ;; Hardware stack levels used: 1
  1830 ;; Hardware stack levels required when called: 2
  1831 ;; This function calls:
  1832 ;;		___fladd
  1833 ;; This function is called by:
  1834 ;;		_soundPlay
  1835 ;; This function uses a non-reentrant model
  1836 ;;
  1837                           
  1838     0FA8                     ___flsub:	
  1839                           ;psect for function ___flsub
  1840                           
  1841     0FA8                     l1509:	
  1842                           ;incstack = 0
  1843                           ; Regs used in ___flsub: [wreg+status,2+status,0+btemp+1+pclath+cstack]
  1844                           
  1845     0FA8  3080               	movlw	128
  1846     0FA9  1283               	bcf	3,5	;RP0=0, select bank0
  1847     0FAA  1303               	bcf	3,6	;RP1=0, select bank0
  1848     0FAB  06AF               	xorwf	___flsub@a+3,f
  1849     0FAC                     l1511:
  1850     0FAC  0833               	movf	___flsub@b+3,w
  1851     0FAD  00F6               	movwf	___fladd@b+3
  1852     0FAE  0832               	movf	___flsub@b+2,w
  1853     0FAF  00F5               	movwf	___fladd@b+2
  1854     0FB0  0831               	movf	___flsub@b+1,w
  1855     0FB1  00F4               	movwf	___fladd@b+1
  1856     0FB2  0830               	movf	___flsub@b,w
  1857     0FB3  00F3               	movwf	___fladd@b
  1858     0FB4  082F               	movf	___flsub@a+3,w
  1859     0FB5  00FA               	movwf	___fladd@a+3
  1860     0FB6  082E               	movf	___flsub@a+2,w
  1861     0FB7  00F9               	movwf	___fladd@a+2
  1862     0FB8  082D               	movf	___flsub@a+1,w
  1863     0FB9  00F8               	movwf	___fladd@a+1
  1864     0FBA  082C               	movf	___flsub@a,w
  1865     0FBB  00F7               	movwf	___fladd@a
  1866     0FBC  120A  118A  202B  120A  158A  	fcall	___fladd
  1867     0FC1  0876               	movf	?___fladd+3,w
  1868     0FC2  1283               	bcf	3,5	;RP0=0, select bank0
  1869     0FC3  1303               	bcf	3,6	;RP1=0, select bank0
  1870     0FC4  00AF               	movwf	?___flsub+3
  1871     0FC5  0875               	movf	?___fladd+2,w
  1872     0FC6  00AE               	movwf	?___flsub+2
  1873     0FC7  0874               	movf	?___fladd+1,w
  1874     0FC8  00AD               	movwf	?___flsub+1
  1875     0FC9  0873               	movf	?___fladd,w
  1876     0FCA  00AC               	movwf	?___flsub
  1877     0FCB                     l512:
  1878     0FCB  0008               	return
  1879     0FCC                     __end_of___flsub:
  1880                           
  1881                           	psect	text5
  1882     002B                     __ptext5:	
  1883 ;; *************** function ___fladd *****************
  1884 ;; Defined at:
  1885 ;;		line 10 in file "E:\XC8 Compiler\pic\sources\c90\common\sprcadd.c"
  1886 ;; Parameters:    Size  Location     Type
  1887 ;;  b               4    3[COMMON] long 
  1888 ;;  a               4    7[COMMON] long 
  1889 ;; Auto vars:     Size  Location     Type
  1890 ;;  grs             1   11[BANK0 ] unsigned char 
  1891 ;;  bexp            1   10[BANK0 ] unsigned char 
  1892 ;;  aexp            1    9[BANK0 ] unsigned char 
  1893 ;;  signs           1    8[BANK0 ] unsigned char 
  1894 ;; Return value:  Size  Location     Type
  1895 ;;                  4    3[COMMON] unsigned char 
  1896 ;; Registers used:
  1897 ;;		wreg, status,2, status,0, btemp+1
  1898 ;; Tracked objects:
  1899 ;;		On entry : 0/0
  1900 ;;		On exit  : 0/0
  1901 ;;		Unchanged: 0/0
  1902 ;; Data sizes:     COMMON   BANK0   BANK1   BANK3   BANK2
  1903 ;;      Params:         8       0       0       0       0
  1904 ;;      Locals:         0       4       0       0       0
  1905 ;;      Temps:          0       8       0       0       0
  1906 ;;      Totals:         8      12       0       0       0
  1907 ;;Total ram usage:       20 bytes
  1908 ;; Hardware stack levels used: 1
  1909 ;; Hardware stack levels required when called: 1
  1910 ;; This function calls:
  1911 ;;		Nothing
  1912 ;; This function is called by:
  1913 ;;		___flsub
  1914 ;; This function uses a non-reentrant model
  1915 ;;
  1916                           
  1917     002B                     ___fladd:	
  1918                           ;psect for function ___fladd
  1919                           
  1920     002B                     l1267:	
  1921                           ;incstack = 0
  1922                           ; Regs used in ___fladd: [wreg+status,2+status,0+btemp+1]
  1923                           
  1924     002B  0876               	movf	___fladd@b+3,w
  1925     002C  3980               	andlw	128
  1926     002D  1283               	bcf	3,5	;RP0=0, select bank0
  1927     002E  1303               	bcf	3,6	;RP1=0, select bank0
  1928     002F  00A8               	movwf	___fladd@signs
  1929     0030                     l1269:
  1930     0030  0876               	movf	___fladd@b+3,w
  1931     0031  00A0               	movwf	??___fladd
  1932     0032  0720               	addwf	??___fladd,w
  1933     0033  00AA               	movwf	___fladd@bexp
  1934     0034                     l1271:
  1935     0034  1FF5               	btfss	___fladd@b+2,7
  1936     0035  2837               	goto	u1131
  1937     0036  2838               	goto	u1130
  1938     0037                     u1131:
  1939     0037  2839               	goto	l1275
  1940     0038                     u1130:
  1941     0038                     l1273:
  1942     0038  142A               	bsf	___fladd@bexp,0
  1943     0039                     l1275:
  1944     0039  082A               	movf	___fladd@bexp,w
  1945     003A  1903               	btfsc	3,2
  1946     003B  283D               	goto	u1141
  1947     003C  283E               	goto	u1140
  1948     003D                     u1141:
  1949     003D  284E               	goto	l1285
  1950     003E                     u1140:
  1951     003E                     l1277:
  1952     003E  0A2A               	incf	___fladd@bexp,w
  1953     003F  1D03               	btfss	3,2
  1954     0040  2842               	goto	u1151
  1955     0041  2843               	goto	u1150
  1956     0042                     u1151:
  1957     0042  284B               	goto	l1281
  1958     0043                     u1150:
  1959     0043                     l1279:
  1960     0043  3000               	movlw	0
  1961     0044  00F6               	movwf	___fladd@b+3
  1962     0045  3000               	movlw	0
  1963     0046  00F5               	movwf	___fladd@b+2
  1964     0047  3000               	movlw	0
  1965     0048  00F4               	movwf	___fladd@b+1
  1966     0049  3000               	movlw	0
  1967     004A  00F3               	movwf	___fladd@b
  1968     004B                     l1281:
  1969     004B  17F5               	bsf	___fladd@b+2,7
  1970     004C                     l1283:
  1971     004C  01F6               	clrf	___fladd@b+3
  1972     004D  2856               	goto	l1287
  1973     004E                     l1285:
  1974     004E  3000               	movlw	0
  1975     004F  00F6               	movwf	___fladd@b+3
  1976     0050  3000               	movlw	0
  1977     0051  00F5               	movwf	___fladd@b+2
  1978     0052  3000               	movlw	0
  1979     0053  00F4               	movwf	___fladd@b+1
  1980     0054  3000               	movlw	0
  1981     0055  00F3               	movwf	___fladd@b
  1982     0056                     l1287:
  1983     0056  087A               	movf	___fladd@a+3,w
  1984     0057  3980               	andlw	128
  1985     0058  00A9               	movwf	___fladd@aexp
  1986     0059                     l1289:
  1987     0059  0829               	movf	___fladd@aexp,w
  1988     005A  0628               	xorwf	___fladd@signs,w
  1989     005B  1903               	skipnz
  1990     005C  285E               	goto	u1161
  1991     005D  285F               	goto	u1160
  1992     005E                     u1161:
  1993     005E  2860               	goto	l1293
  1994     005F                     u1160:
  1995     005F                     l1291:
  1996     005F  1728               	bsf	___fladd@signs,6
  1997     0060                     l1293:
  1998     0060  087A               	movf	___fladd@a+3,w
  1999     0061  00A0               	movwf	??___fladd
  2000     0062  0720               	addwf	??___fladd,w
  2001     0063  00A9               	movwf	___fladd@aexp
  2002     0064                     l1295:
  2003     0064  1FF9               	btfss	___fladd@a+2,7
  2004     0065  2867               	goto	u1171
  2005     0066  2868               	goto	u1170
  2006     0067                     u1171:
  2007     0067  2869               	goto	l1299
  2008     0068                     u1170:
  2009     0068                     l1297:
  2010     0068  1429               	bsf	___fladd@aexp,0
  2011     0069                     l1299:
  2012     0069  0829               	movf	___fladd@aexp,w
  2013     006A  1903               	btfsc	3,2
  2014     006B  286D               	goto	u1181
  2015     006C  286E               	goto	u1180
  2016     006D                     u1181:
  2017     006D  287E               	goto	l1309
  2018     006E                     u1180:
  2019     006E                     l1301:
  2020     006E  0A29               	incf	___fladd@aexp,w
  2021     006F  1D03               	btfss	3,2
  2022     0070  2872               	goto	u1191
  2023     0071  2873               	goto	u1190
  2024     0072                     u1191:
  2025     0072  287B               	goto	l1305
  2026     0073                     u1190:
  2027     0073                     l1303:
  2028     0073  3000               	movlw	0
  2029     0074  00FA               	movwf	___fladd@a+3
  2030     0075  3000               	movlw	0
  2031     0076  00F9               	movwf	___fladd@a+2
  2032     0077  3000               	movlw	0
  2033     0078  00F8               	movwf	___fladd@a+1
  2034     0079  3000               	movlw	0
  2035     007A  00F7               	movwf	___fladd@a
  2036     007B                     l1305:
  2037     007B  17F9               	bsf	___fladd@a+2,7
  2038     007C                     l1307:
  2039     007C  01FA               	clrf	___fladd@a+3
  2040     007D  2886               	goto	l466
  2041     007E                     l1309:
  2042     007E  3000               	movlw	0
  2043     007F  00FA               	movwf	___fladd@a+3
  2044     0080  3000               	movlw	0
  2045     0081  00F9               	movwf	___fladd@a+2
  2046     0082  3000               	movlw	0
  2047     0083  00F8               	movwf	___fladd@a+1
  2048     0084  3000               	movlw	0
  2049     0085  00F7               	movwf	___fladd@a
  2050     0086                     l466:
  2051     0086  082A               	movf	___fladd@bexp,w
  2052     0087  0229               	subwf	___fladd@aexp,w
  2053     0088  1803               	skipnc
  2054     0089  288B               	goto	u1201
  2055     008A  288C               	goto	u1200
  2056     008B                     u1201:
  2057     008B  28B2               	goto	l1345
  2058     008C                     u1200:
  2059     008C                     l1311:
  2060     008C  1F28               	btfss	___fladd@signs,6
  2061     008D  288F               	goto	u1211
  2062     008E  2890               	goto	u1210
  2063     008F                     u1211:
  2064     008F  2894               	goto	l1315
  2065     0090                     u1210:
  2066     0090                     l1313:
  2067     0090  3080               	movlw	128
  2068     0091  00FF               	movwf	btemp+1
  2069     0092  087F               	movf	btemp+1,w
  2070     0093  06A8               	xorwf	___fladd@signs,f
  2071     0094                     l1315:
  2072     0094  082A               	movf	___fladd@bexp,w
  2073     0095  00AB               	movwf	___fladd@grs
  2074     0096                     l1317:
  2075     0096  0829               	movf	___fladd@aexp,w
  2076     0097  00AA               	movwf	___fladd@bexp
  2077     0098                     l1319:
  2078     0098  082B               	movf	___fladd@grs,w
  2079     0099  00A9               	movwf	___fladd@aexp
  2080     009A                     l1321:
  2081     009A  0873               	movf	___fladd@b,w
  2082     009B  00AB               	movwf	___fladd@grs
  2083     009C                     l1323:
  2084     009C  0877               	movf	___fladd@a,w
  2085     009D  00F3               	movwf	___fladd@b
  2086     009E                     l1325:
  2087     009E  082B               	movf	___fladd@grs,w
  2088     009F  00F7               	movwf	___fladd@a
  2089     00A0                     l1327:
  2090     00A0  0874               	movf	___fladd@b+1,w
  2091     00A1  00AB               	movwf	___fladd@grs
  2092     00A2                     l1329:
  2093     00A2  0878               	movf	___fladd@a+1,w
  2094     00A3  00F4               	movwf	___fladd@b+1
  2095     00A4                     l1331:
  2096     00A4  082B               	movf	___fladd@grs,w
  2097     00A5  00F8               	movwf	___fladd@a+1
  2098     00A6                     l1333:
  2099     00A6  0875               	movf	___fladd@b+2,w
  2100     00A7  00AB               	movwf	___fladd@grs
  2101     00A8                     l1335:
  2102     00A8  0879               	movf	___fladd@a+2,w
  2103     00A9  00F5               	movwf	___fladd@b+2
  2104     00AA                     l1337:
  2105     00AA  082B               	movf	___fladd@grs,w
  2106     00AB  00F9               	movwf	___fladd@a+2
  2107     00AC                     l1339:
  2108     00AC  0876               	movf	___fladd@b+3,w
  2109     00AD  00AB               	movwf	___fladd@grs
  2110     00AE                     l1341:
  2111     00AE  087A               	movf	___fladd@a+3,w
  2112     00AF  00F6               	movwf	___fladd@b+3
  2113     00B0                     l1343:
  2114     00B0  082B               	movf	___fladd@grs,w
  2115     00B1  00FA               	movwf	___fladd@a+3
  2116     00B2                     l1345:
  2117     00B2  01AB               	clrf	___fladd@grs
  2118     00B3                     l1347:
  2119     00B3  0829               	movf	___fladd@aexp,w
  2120     00B4  00A0               	movwf	??___fladd
  2121     00B5  01A1               	clrf	??___fladd+1
  2122     00B6  0821               	movf	??___fladd+1,w
  2123     00B7  00A3               	movwf	??___fladd+3
  2124     00B8  082A               	movf	___fladd@bexp,w
  2125     00B9  0220               	subwf	??___fladd,w
  2126     00BA  00A2               	movwf	??___fladd+2
  2127     00BB  1C03               	skipc
  2128     00BC  03A3               	decf	??___fladd+3,f
  2129     00BD  0823               	movf	??___fladd+3,w
  2130     00BE  3A80               	xorlw	128
  2131     00BF  00FF               	movwf	btemp+1
  2132     00C0  3080               	movlw	128
  2133     00C1  027F               	subwf	btemp+1,w
  2134     00C2  1D03               	skipz
  2135     00C3  28C6               	goto	u1225
  2136     00C4  301A               	movlw	26
  2137     00C5  0222               	subwf	??___fladd+2,w
  2138     00C6                     u1225:
  2139     00C6  1C03               	skipc
  2140     00C7  28C9               	goto	u1221
  2141     00C8  28CA               	goto	u1220
  2142     00C9                     u1221:
  2143     00C9  2901               	goto	l1363
  2144     00CA                     u1220:
  2145     00CA                     l1349:
  2146     00CA  0876               	movf	___fladd@b+3,w
  2147     00CB  0475               	iorwf	___fladd@b+2,w
  2148     00CC  0474               	iorwf	___fladd@b+1,w
  2149     00CD  0473               	iorwf	___fladd@b,w
  2150     00CE  1D03               	skipz
  2151     00CF  28D1               	goto	u1231
  2152     00D0  28D3               	goto	u1230
  2153     00D1                     u1231:
  2154     00D1  3001               	movlw	1
  2155     00D2  28D4               	goto	u1240
  2156     00D3                     u1230:
  2157     00D3  3000               	movlw	0
  2158     00D4                     u1240:
  2159     00D4  1283               	bcf	3,5	;RP0=0, select bank0
  2160     00D5  1303               	bcf	3,6	;RP1=0, select bank0
  2161     00D6  00AB               	movwf	___fladd@grs
  2162     00D7  3000               	movlw	0
  2163     00D8  00F6               	movwf	___fladd@b+3
  2164     00D9  3000               	movlw	0
  2165     00DA  00F5               	movwf	___fladd@b+2
  2166     00DB  3000               	movlw	0
  2167     00DC  00F4               	movwf	___fladd@b+1
  2168     00DD  3000               	movlw	0
  2169     00DE  00F3               	movwf	___fladd@b
  2170     00DF  0829               	movf	___fladd@aexp,w
  2171     00E0  00AA               	movwf	___fladd@bexp
  2172     00E1  2909               	goto	l470
  2173     00E2                     l472:
  2174     00E2  1C2B               	btfss	___fladd@grs,0
  2175     00E3  28E5               	goto	u1251
  2176     00E4  28E6               	goto	u1250
  2177     00E5                     u1251:
  2178     00E5  28ED               	goto	l1353
  2179     00E6                     u1250:
  2180     00E6                     l1351:
  2181     00E6  082B               	movf	___fladd@grs,w
  2182     00E7  00A0               	movwf	??___fladd
  2183     00E8  1003               	clrc
  2184     00E9  0C20               	rrf	??___fladd,w
  2185     00EA  3801               	iorlw	1
  2186     00EB  00AB               	movwf	___fladd@grs
  2187     00EC  28EF               	goto	l1355
  2188     00ED                     l1353:
  2189     00ED  1003               	clrc
  2190     00EE  0CAB               	rrf	___fladd@grs,f
  2191     00EF                     l1355:
  2192     00EF  1C73               	btfss	___fladd@b,0
  2193     00F0  28F2               	goto	u1261
  2194     00F1  28F3               	goto	u1260
  2195     00F2                     u1261:
  2196     00F2  28F4               	goto	l1359
  2197     00F3                     u1260:
  2198     00F3                     l1357:
  2199     00F3  17AB               	bsf	___fladd@grs,7
  2200     00F4                     l1359:
  2201     00F4  3001               	movlw	1
  2202     00F5  00A0               	movwf	??___fladd
  2203     00F6                     u1275:
  2204     00F6  0D76               	rlf	___fladd@b+3,w
  2205     00F7  0CF6               	rrf	___fladd@b+3,f
  2206     00F8  0CF5               	rrf	___fladd@b+2,f
  2207     00F9  0CF4               	rrf	___fladd@b+1,f
  2208     00FA  0CF3               	rrf	___fladd@b,f
  2209     00FB  0BA0               	decfsz	??___fladd& (0+127),f
  2210     00FC  28F6               	goto	u1275
  2211     00FD                     l1361:
  2212     00FD  3001               	movlw	1
  2213     00FE  00FF               	movwf	btemp+1
  2214     00FF  087F               	movf	btemp+1,w
  2215     0100  07AA               	addwf	___fladd@bexp,f
  2216     0101                     l1363:
  2217     0101  1283               	bcf	3,5	;RP0=0, select bank0
  2218     0102  1303               	bcf	3,6	;RP1=0, select bank0
  2219     0103  0829               	movf	___fladd@aexp,w
  2220     0104  022A               	subwf	___fladd@bexp,w
  2221     0105  1C03               	skipc
  2222     0106  2908               	goto	u1281
  2223     0107  2909               	goto	u1280
  2224     0108                     u1281:
  2225     0108  28E2               	goto	l472
  2226     0109                     u1280:
  2227     0109                     l470:
  2228     0109  1B28               	btfsc	___fladd@signs,6
  2229     010A  290C               	goto	u1291
  2230     010B  290D               	goto	u1290
  2231     010C                     u1291:
  2232     010C  2956               	goto	l1389
  2233     010D                     u1290:
  2234     010D                     l1365:
  2235     010D  082A               	movf	___fladd@bexp,w
  2236     010E  1D03               	btfss	3,2
  2237     010F  2911               	goto	u1301
  2238     0110  2912               	goto	u1300
  2239     0111                     u1301:
  2240     0111  291B               	goto	l1371
  2241     0112                     u1300:
  2242     0112                     l1367:
  2243     0112  3000               	movlw	0
  2244     0113  00F6               	movwf	?___fladd+3
  2245     0114  3000               	movlw	0
  2246     0115  00F5               	movwf	?___fladd+2
  2247     0116  3000               	movlw	0
  2248     0117  00F4               	movwf	?___fladd+1
  2249     0118  3000               	movlw	0
  2250     0119  00F3               	movwf	?___fladd
  2251     011A  2A82               	goto	l479
  2252     011B                     l1371:
  2253     011B  0877               	movf	___fladd@a,w
  2254     011C  07F3               	addwf	___fladd@b,f
  2255     011D  0878               	movf	___fladd@a+1,w
  2256     011E  1103               	clrz
  2257     011F  1803               	skipnc
  2258     0120  3E01               	addlw	1
  2259     0121  1903               	skipnz
  2260     0122  2924               	goto	u1311
  2261     0123  07F4               	addwf	___fladd@b+1,f
  2262     0124                     u1311:
  2263     0124  0879               	movf	___fladd@a+2,w
  2264     0125  1103               	clrz
  2265     0126  1803               	skipnc
  2266     0127  3E01               	addlw	1
  2267     0128  1903               	skipnz
  2268     0129  292B               	goto	u1312
  2269     012A  07F5               	addwf	___fladd@b+2,f
  2270     012B                     u1312:
  2271     012B  087A               	movf	___fladd@a+3,w
  2272     012C  1103               	clrz
  2273     012D  1803               	skipnc
  2274     012E  3E01               	addlw	1
  2275     012F  1903               	skipnz
  2276     0130  2932               	goto	u1313
  2277     0131  07F6               	addwf	___fladd@b+3,f
  2278     0132                     u1313:
  2279     0132                     l1373:
  2280     0132  1C76               	btfss	___fladd@b+3,0
  2281     0133  2935               	goto	u1321
  2282     0134  2936               	goto	u1320
  2283     0135                     u1321:
  2284     0135  2A0A               	goto	l1425
  2285     0136                     u1320:
  2286     0136                     l1375:
  2287     0136  1C2B               	btfss	___fladd@grs,0
  2288     0137  2939               	goto	u1331
  2289     0138  293A               	goto	u1330
  2290     0139                     u1331:
  2291     0139  2941               	goto	l1379
  2292     013A                     u1330:
  2293     013A                     l1377:
  2294     013A  082B               	movf	___fladd@grs,w
  2295     013B  00A0               	movwf	??___fladd
  2296     013C  1003               	clrc
  2297     013D  0C20               	rrf	??___fladd,w
  2298     013E  3801               	iorlw	1
  2299     013F  00AB               	movwf	___fladd@grs
  2300     0140  2943               	goto	l1381
  2301     0141                     l1379:
  2302     0141  1003               	clrc
  2303     0142  0CAB               	rrf	___fladd@grs,f
  2304     0143                     l1381:
  2305     0143  1C73               	btfss	___fladd@b,0
  2306     0144  2946               	goto	u1341
  2307     0145  2947               	goto	u1340
  2308     0146                     u1341:
  2309     0146  2948               	goto	l1385
  2310     0147                     u1340:
  2311     0147                     l1383:
  2312     0147  17AB               	bsf	___fladd@grs,7
  2313     0148                     l1385:
  2314     0148  3001               	movlw	1
  2315     0149  00A0               	movwf	??___fladd
  2316     014A                     u1355:
  2317     014A  0D76               	rlf	___fladd@b+3,w
  2318     014B  0CF6               	rrf	___fladd@b+3,f
  2319     014C  0CF5               	rrf	___fladd@b+2,f
  2320     014D  0CF4               	rrf	___fladd@b+1,f
  2321     014E  0CF3               	rrf	___fladd@b,f
  2322     014F  0BA0               	decfsz	??___fladd& (0+127),f
  2323     0150  294A               	goto	u1355
  2324     0151                     l1387:
  2325     0151  3001               	movlw	1
  2326     0152  00FF               	movwf	btemp+1
  2327     0153  087F               	movf	btemp+1,w
  2328     0154  07AA               	addwf	___fladd@bexp,f
  2329     0155  2A0A               	goto	l1425
  2330     0156                     l1389:
  2331     0156  0876               	movf	___fladd@b+3,w
  2332     0157  3A80               	xorlw	128
  2333     0158  00FF               	movwf	btemp+1
  2334     0159  087A               	movf	___fladd@a+3,w
  2335     015A  3A80               	xorlw	128
  2336     015B  027F               	subwf	btemp+1,w
  2337     015C  1D03               	skipz
  2338     015D  2968               	goto	u1363
  2339     015E  0879               	movf	___fladd@a+2,w
  2340     015F  0275               	subwf	___fladd@b+2,w
  2341     0160  1D03               	skipz
  2342     0161  2968               	goto	u1363
  2343     0162  0878               	movf	___fladd@a+1,w
  2344     0163  0274               	subwf	___fladd@b+1,w
  2345     0164  1D03               	skipz
  2346     0165  2968               	goto	u1363
  2347     0166  0877               	movf	___fladd@a,w
  2348     0167  0273               	subwf	___fladd@b,w
  2349     0168                     u1363:
  2350     0168  1803               	skipnc
  2351     0169  296B               	goto	u1361
  2352     016A  296C               	goto	u1360
  2353     016B                     u1361:
  2354     016B  29C4               	goto	l1401
  2355     016C                     u1360:
  2356     016C                     l1391:
  2357     016C  30FF               	movlw	255
  2358     016D  00A0               	movwf	??___fladd
  2359     016E  30FF               	movlw	255
  2360     016F  00A1               	movwf	??___fladd+1
  2361     0170  30FF               	movlw	255
  2362     0171  00A2               	movwf	??___fladd+2
  2363     0172  30FF               	movlw	255
  2364     0173  00A3               	movwf	??___fladd+3
  2365     0174  0877               	movf	___fladd@a,w
  2366     0175  00A4               	movwf	??___fladd+4
  2367     0176  0878               	movf	___fladd@a+1,w
  2368     0177  00A5               	movwf	??___fladd+5
  2369     0178  0879               	movf	___fladd@a+2,w
  2370     0179  00A6               	movwf	??___fladd+6
  2371     017A  087A               	movf	___fladd@a+3,w
  2372     017B  00A7               	movwf	??___fladd+7
  2373     017C  0873               	movf	___fladd@b,w
  2374     017D  02A4               	subwf	??___fladd+4,f
  2375     017E  0874               	movf	___fladd@b+1,w
  2376     017F  1C03               	skipc
  2377     0180  0F74               	incfsz	___fladd@b+1,w
  2378     0181  2983               	goto	u1371
  2379     0182  2984               	goto	u1372
  2380     0183                     u1371:
  2381     0183  02A5               	subwf	??___fladd+5,f
  2382     0184                     u1372:
  2383     0184  0875               	movf	___fladd@b+2,w
  2384     0185  1C03               	skipc
  2385     0186  0F75               	incfsz	___fladd@b+2,w
  2386     0187  2989               	goto	u1373
  2387     0188  298A               	goto	u1374
  2388     0189                     u1373:
  2389     0189  02A6               	subwf	??___fladd+6,f
  2390     018A                     u1374:
  2391     018A  0876               	movf	___fladd@b+3,w
  2392     018B  1C03               	skipc
  2393     018C  0F76               	incfsz	___fladd@b+3,w
  2394     018D  298F               	goto	u1375
  2395     018E  2990               	goto	u1376
  2396     018F                     u1375:
  2397     018F  02A7               	subwf	??___fladd+7,f
  2398     0190                     u1376:
  2399     0190  0824               	movf	??___fladd+4,w
  2400     0191  07A0               	addwf	??___fladd,f
  2401     0192  0825               	movf	??___fladd+5,w
  2402     0193  1803               	skipnc
  2403     0194  0F25               	incfsz	??___fladd+5,w
  2404     0195  2997               	goto	u1380
  2405     0196  2998               	goto	u1381
  2406     0197                     u1380:
  2407     0197  07A1               	addwf	??___fladd+1,f
  2408     0198                     u1381:
  2409     0198  0826               	movf	??___fladd+6,w
  2410     0199  1803               	skipnc
  2411     019A  0F26               	incfsz	??___fladd+6,w
  2412     019B  299D               	goto	u1382
  2413     019C  299E               	goto	u1383
  2414     019D                     u1382:
  2415     019D  07A2               	addwf	??___fladd+2,f
  2416     019E                     u1383:
  2417     019E  0827               	movf	??___fladd+7,w
  2418     019F  1803               	skipnc
  2419     01A0  0A27               	incf	??___fladd+7,w
  2420     01A1  07A3               	addwf	??___fladd+3,f
  2421     01A2  0823               	movf	??___fladd+3,w
  2422     01A3  00F6               	movwf	___fladd@b+3
  2423     01A4  0822               	movf	??___fladd+2,w
  2424     01A5  00F5               	movwf	___fladd@b+2
  2425     01A6  0821               	movf	??___fladd+1,w
  2426     01A7  00F4               	movwf	___fladd@b+1
  2427     01A8  0820               	movf	??___fladd,w
  2428     01A9  00F3               	movwf	___fladd@b
  2429     01AA                     l1393:
  2430     01AA  3080               	movlw	128
  2431     01AB  00FF               	movwf	btemp+1
  2432     01AC  087F               	movf	btemp+1,w
  2433     01AD  06A8               	xorwf	___fladd@signs,f
  2434     01AE                     l1395:
  2435     01AE  09AB               	comf	___fladd@grs,f
  2436     01AF  0AAB               	incf	___fladd@grs,f
  2437     01B0                     l1397:
  2438     01B0  082B               	movf	___fladd@grs,w
  2439     01B1  1D03               	btfss	3,2
  2440     01B2  29B4               	goto	u1391
  2441     01B3  29B5               	goto	u1390
  2442     01B4                     u1391:
  2443     01B4  29D2               	goto	l487
  2444     01B5                     u1390:
  2445     01B5                     l1399:
  2446     01B5  3001               	movlw	1
  2447     01B6  07F3               	addwf	___fladd@b,f
  2448     01B7  3000               	movlw	0
  2449     01B8  1803               	skipnc
  2450     01B9  3001               	movlw	1
  2451     01BA  07F4               	addwf	___fladd@b+1,f
  2452     01BB  3000               	movlw	0
  2453     01BC  1803               	skipnc
  2454     01BD  3001               	movlw	1
  2455     01BE  07F5               	addwf	___fladd@b+2,f
  2456     01BF  3000               	movlw	0
  2457     01C0  1803               	skipnc
  2458     01C1  3001               	movlw	1
  2459     01C2  07F6               	addwf	___fladd@b+3,f
  2460     01C3  29D2               	goto	l487
  2461     01C4                     l1401:
  2462     01C4  0877               	movf	___fladd@a,w
  2463     01C5  02F3               	subwf	___fladd@b,f
  2464     01C6  0878               	movf	___fladd@a+1,w
  2465     01C7  1C03               	skipc
  2466     01C8  0F78               	incfsz	___fladd@a+1,w
  2467     01C9  02F4               	subwf	___fladd@b+1,f
  2468     01CA  0879               	movf	___fladd@a+2,w
  2469     01CB  1C03               	skipc
  2470     01CC  0F79               	incfsz	___fladd@a+2,w
  2471     01CD  02F5               	subwf	___fladd@b+2,f
  2472     01CE  087A               	movf	___fladd@a+3,w
  2473     01CF  1C03               	skipc
  2474     01D0  0F7A               	incfsz	___fladd@a+3,w
  2475     01D1  02F6               	subwf	___fladd@b+3,f
  2476     01D2                     l487:
  2477     01D2  0876               	movf	___fladd@b+3,w
  2478     01D3  0475               	iorwf	___fladd@b+2,w
  2479     01D4  0474               	iorwf	___fladd@b+1,w
  2480     01D5  0473               	iorwf	___fladd@b,w
  2481     01D6  1D03               	skipz
  2482     01D7  29D9               	goto	u1401
  2483     01D8  29DA               	goto	u1400
  2484     01D9                     u1401:
  2485     01D9  2A06               	goto	l1423
  2486     01DA                     u1400:
  2487     01DA                     l1403:
  2488     01DA  082B               	movf	___fladd@grs,w
  2489     01DB  1D03               	btfss	3,2
  2490     01DC  29DE               	goto	u1411
  2491     01DD  29DF               	goto	u1410
  2492     01DE                     u1411:
  2493     01DE  2A06               	goto	l1423
  2494     01DF                     u1410:
  2495     01DF                     l1405:
  2496     01DF  3000               	movlw	0
  2497     01E0  00F6               	movwf	?___fladd+3
  2498     01E1  3000               	movlw	0
  2499     01E2  00F5               	movwf	?___fladd+2
  2500     01E3  3000               	movlw	0
  2501     01E4  00F4               	movwf	?___fladd+1
  2502     01E5  3000               	movlw	0
  2503     01E6  00F3               	movwf	?___fladd
  2504     01E7  2A82               	goto	l479
  2505     01E8                     l1409:
  2506     01E8  3001               	movlw	1
  2507     01E9  00A0               	movwf	??___fladd
  2508     01EA                     u1425:
  2509     01EA  1003               	clrc
  2510     01EB  0DF3               	rlf	___fladd@b,f
  2511     01EC  0DF4               	rlf	___fladd@b+1,f
  2512     01ED  0DF5               	rlf	___fladd@b+2,f
  2513     01EE  0DF6               	rlf	___fladd@b+3,f
  2514     01EF  0BA0               	decfsz	??___fladd,f
  2515     01F0  29EA               	goto	u1425
  2516     01F1                     l1411:
  2517     01F1  1FAB               	btfss	___fladd@grs,7
  2518     01F2  29F4               	goto	u1431
  2519     01F3  29F5               	goto	u1430
  2520     01F4                     u1431:
  2521     01F4  29F6               	goto	l491
  2522     01F5                     u1430:
  2523     01F5                     l1413:
  2524     01F5  1473               	bsf	___fladd@b,0
  2525     01F6                     l491:
  2526     01F6  1C2B               	btfss	___fladd@grs,0
  2527     01F7  29F9               	goto	u1441
  2528     01F8  29FA               	goto	u1440
  2529     01F9                     u1441:
  2530     01F9  29FD               	goto	l1417
  2531     01FA                     u1440:
  2532     01FA                     l1415:
  2533     01FA  1403               	setc
  2534     01FB  0DAB               	rlf	___fladd@grs,f
  2535     01FC  29FF               	goto	l1419
  2536     01FD                     l1417:
  2537     01FD  1003               	clrc
  2538     01FE  0DAB               	rlf	___fladd@grs,f
  2539     01FF                     l1419:
  2540     01FF  082A               	movf	___fladd@bexp,w
  2541     0200  1903               	btfsc	3,2
  2542     0201  2A03               	goto	u1451
  2543     0202  2A04               	goto	u1450
  2544     0203                     u1451:
  2545     0203  2A06               	goto	l1423
  2546     0204                     u1450:
  2547     0204                     l1421:
  2548     0204  3001               	movlw	1
  2549     0205  02AA               	subwf	___fladd@bexp,f
  2550     0206                     l1423:
  2551     0206  1FF5               	btfss	___fladd@b+2,7
  2552     0207  2A09               	goto	u1461
  2553     0208  2A0A               	goto	u1460
  2554     0209                     u1461:
  2555     0209  29E8               	goto	l1409
  2556     020A                     u1460:
  2557     020A                     l1425:
  2558     020A  01A9               	clrf	___fladd@aexp
  2559     020B                     l1427:
  2560     020B  1FAB               	btfss	___fladd@grs,7
  2561     020C  2A0E               	goto	u1471
  2562     020D  2A0F               	goto	u1470
  2563     020E                     u1471:
  2564     020E  2A1D               	goto	l1435
  2565     020F                     u1470:
  2566     020F                     l1429:
  2567     020F  082B               	movf	___fladd@grs,w
  2568     0210  397F               	andlw	127
  2569     0211  1903               	btfsc	3,2
  2570     0212  2A14               	goto	u1481
  2571     0213  2A15               	goto	u1480
  2572     0214                     u1481:
  2573     0214  2A18               	goto	l497
  2574     0215                     u1480:
  2575     0215                     l1431:
  2576     0215  01A9               	clrf	___fladd@aexp
  2577     0216  0AA9               	incf	___fladd@aexp,f
  2578     0217  2A1D               	goto	l1435
  2579     0218                     l497:
  2580     0218  1C73               	btfss	___fladd@b,0
  2581     0219  2A1B               	goto	u1491
  2582     021A  2A1C               	goto	u1490
  2583     021B                     u1491:
  2584     021B  2A1D               	goto	l1435
  2585     021C                     u1490:
  2586     021C  2A15               	goto	l1431
  2587     021D                     l1435:
  2588     021D  0829               	movf	___fladd@aexp,w
  2589     021E  1903               	btfsc	3,2
  2590     021F  2A21               	goto	u1501
  2591     0220  2A22               	goto	u1500
  2592     0221                     u1501:
  2593     0221  2A56               	goto	l1445
  2594     0222                     u1500:
  2595     0222                     l1437:
  2596     0222  3001               	movlw	1
  2597     0223  07F3               	addwf	___fladd@b,f
  2598     0224  3000               	movlw	0
  2599     0225  1803               	skipnc
  2600     0226  3001               	movlw	1
  2601     0227  07F4               	addwf	___fladd@b+1,f
  2602     0228  3000               	movlw	0
  2603     0229  1803               	skipnc
  2604     022A  3001               	movlw	1
  2605     022B  07F5               	addwf	___fladd@b+2,f
  2606     022C  3000               	movlw	0
  2607     022D  1803               	skipnc
  2608     022E  3001               	movlw	1
  2609     022F  07F6               	addwf	___fladd@b+3,f
  2610     0230                     l1439:
  2611     0230  1C76               	btfss	___fladd@b+3,0
  2612     0231  2A33               	goto	u1511
  2613     0232  2A34               	goto	u1510
  2614     0233                     u1511:
  2615     0233  2A56               	goto	l1445
  2616     0234                     u1510:
  2617     0234                     l1441:
  2618     0234  0873               	movf	___fladd@b,w
  2619     0235  00A0               	movwf	??___fladd
  2620     0236  0874               	movf	___fladd@b+1,w
  2621     0237  00A1               	movwf	??___fladd+1
  2622     0238  0875               	movf	___fladd@b+2,w
  2623     0239  00A2               	movwf	??___fladd+2
  2624     023A  0876               	movf	___fladd@b+3,w
  2625     023B  00A3               	movwf	??___fladd+3
  2626     023C  3001               	movlw	1
  2627     023D  00A4               	movwf	??___fladd+4
  2628     023E                     u1525:
  2629     023E  0D23               	rlf	??___fladd+3,w
  2630     023F  0CA3               	rrf	??___fladd+3,f
  2631     0240  0CA2               	rrf	??___fladd+2,f
  2632     0241  0CA1               	rrf	??___fladd+1,f
  2633     0242  0CA0               	rrf	??___fladd,f
  2634     0243                     u1520:
  2635     0243  0BA4               	decfsz	??___fladd+4,f
  2636     0244  2A3E               	goto	u1525
  2637     0245  0823               	movf	??___fladd+3,w
  2638     0246  00F6               	movwf	___fladd@b+3
  2639     0247  0822               	movf	??___fladd+2,w
  2640     0248  00F5               	movwf	___fladd@b+2
  2641     0249  0821               	movf	??___fladd+1,w
  2642     024A  00F4               	movwf	___fladd@b+1
  2643     024B  0820               	movf	??___fladd,w
  2644     024C  00F3               	movwf	___fladd@b
  2645     024D  0A2A               	incf	___fladd@bexp,w
  2646     024E  1903               	btfsc	3,2
  2647     024F  2A51               	goto	u1531
  2648     0250  2A52               	goto	u1530
  2649     0251                     u1531:
  2650     0251  2A56               	goto	l1445
  2651     0252                     u1530:
  2652     0252                     l1443:
  2653     0252  3001               	movlw	1
  2654     0253  00FF               	movwf	btemp+1
  2655     0254  087F               	movf	btemp+1,w
  2656     0255  07AA               	addwf	___fladd@bexp,f
  2657     0256                     l1445:
  2658     0256  0A2A               	incf	___fladd@bexp,w
  2659     0257  1903               	btfsc	3,2
  2660     0258  2A5A               	goto	u1541
  2661     0259  2A5B               	goto	u1540
  2662     025A                     u1541:
  2663     025A  2A60               	goto	l1449
  2664     025B                     u1540:
  2665     025B                     l1447:
  2666     025B  082A               	movf	___fladd@bexp,w
  2667     025C  1D03               	btfss	3,2
  2668     025D  2A5F               	goto	u1551
  2669     025E  2A60               	goto	u1550
  2670     025F                     u1551:
  2671     025F  2A6E               	goto	l1455
  2672     0260                     u1550:
  2673     0260                     l1449:
  2674     0260  3000               	movlw	0
  2675     0261  00F6               	movwf	___fladd@b+3
  2676     0262  3000               	movlw	0
  2677     0263  00F5               	movwf	___fladd@b+2
  2678     0264  3000               	movlw	0
  2679     0265  00F4               	movwf	___fladd@b+1
  2680     0266  3000               	movlw	0
  2681     0267  00F3               	movwf	___fladd@b
  2682     0268                     l1451:
  2683     0268  082A               	movf	___fladd@bexp,w
  2684     0269  1D03               	btfss	3,2
  2685     026A  2A6C               	goto	u1561
  2686     026B  2A6D               	goto	u1560
  2687     026C                     u1561:
  2688     026C  2A6E               	goto	l1455
  2689     026D                     u1560:
  2690     026D                     l1453:
  2691     026D  01A8               	clrf	___fladd@signs
  2692     026E                     l1455:
  2693     026E  1C2A               	btfss	___fladd@bexp,0
  2694     026F  2A71               	goto	u1571
  2695     0270  2A72               	goto	u1570
  2696     0271                     u1571:
  2697     0271  2A74               	goto	l1459
  2698     0272                     u1570:
  2699     0272                     l1457:
  2700     0272  17F5               	bsf	___fladd@b+2,7
  2701     0273  2A78               	goto	l1461
  2702     0274                     l1459:
  2703     0274  307F               	movlw	127
  2704     0275  00FF               	movwf	btemp+1
  2705     0276  087F               	movf	btemp+1,w
  2706     0277  05F5               	andwf	___fladd@b+2,f
  2707     0278                     l1461:
  2708     0278  082A               	movf	___fladd@bexp,w
  2709     0279  00A0               	movwf	??___fladd
  2710     027A  1003               	clrc
  2711     027B  0C20               	rrf	??___fladd,w
  2712     027C  00F6               	movwf	___fladd@b+3
  2713     027D                     l1463:
  2714     027D  1FA8               	btfss	___fladd@signs,7
  2715     027E  2A80               	goto	u1581
  2716     027F  2A81               	goto	u1580
  2717     0280                     u1581:
  2718     0280  2A82               	goto	l509
  2719     0281                     u1580:
  2720     0281                     l1465:
  2721     0281  17F6               	bsf	___fladd@b+3,7
  2722     0282                     l509:
  2723     0282                     l479:
  2724     0282  0008               	return
  2725     0283                     __end_of___fladd:
  2726                           
  2727                           	psect	text6
  2728     0283                     __ptext6:	
  2729 ;; *************** function ___fldiv *****************
  2730 ;; Defined at:
  2731 ;;		line 8 in file "E:\XC8 Compiler\pic\sources\c90\common\sprcdiv.c"
  2732 ;; Parameters:    Size  Location     Type
  2733 ;;  a               4    6[BANK0 ] unsigned char 
  2734 ;;  b               4   10[BANK0 ] unsigned char 
  2735 ;; Auto vars:     Size  Location     Type
  2736 ;;  grs             4   26[BANK0 ] unsigned long 
  2737 ;;  rem             4   19[BANK0 ] unsigned long 
  2738 ;;  new_exp         2   24[BANK0 ] int 
  2739 ;;  aexp            1   31[BANK0 ] unsigned char 
  2740 ;;  bexp            1   30[BANK0 ] unsigned char 
  2741 ;;  sign            1   23[BANK0 ] unsigned char 
  2742 ;; Return value:  Size  Location     Type
  2743 ;;                  4    6[BANK0 ] unsigned char 
  2744 ;; Registers used:
  2745 ;;		wreg, status,2, status,0, btemp+1
  2746 ;; Tracked objects:
  2747 ;;		On entry : 0/0
  2748 ;;		On exit  : 0/0
  2749 ;;		Unchanged: 0/0
  2750 ;; Data sizes:     COMMON   BANK0   BANK1   BANK3   BANK2
  2751 ;;      Params:         0       8       0       0       0
  2752 ;;      Locals:         0      13       0       0       0
  2753 ;;      Temps:          0       5       0       0       0
  2754 ;;      Totals:         0      26       0       0       0
  2755 ;;Total ram usage:       26 bytes
  2756 ;; Hardware stack levels used: 1
  2757 ;; Hardware stack levels required when called: 1
  2758 ;; This function calls:
  2759 ;;		Nothing
  2760 ;; This function is called by:
  2761 ;;		_soundPlay
  2762 ;; This function uses a non-reentrant model
  2763 ;;
  2764                           
  2765     0283                     ___fldiv:	
  2766                           ;psect for function ___fldiv
  2767                           
  2768     0283                     l1515:	
  2769                           ;incstack = 0
  2770                           ; Regs used in ___fldiv: [wreg+status,2+status,0+btemp+1]
  2771                           
  2772     0283  1283               	bcf	3,5	;RP0=0, select bank0
  2773     0284  1303               	bcf	3,6	;RP1=0, select bank0
  2774     0285  082D               	movf	___fldiv@b+3,w
  2775     0286  3980               	andlw	128
  2776     0287  00B7               	movwf	___fldiv@sign
  2777     0288                     l1517:
  2778     0288  082D               	movf	___fldiv@b+3,w
  2779     0289  00AE               	movwf	??___fldiv
  2780     028A  072E               	addwf	??___fldiv,w
  2781     028B  00BE               	movwf	___fldiv@bexp
  2782     028C                     l1519:
  2783     028C  1FAC               	btfss	___fldiv@b+2,7
  2784     028D  2A8F               	goto	u1701
  2785     028E  2A90               	goto	u1700
  2786     028F                     u1701:
  2787     028F  2A91               	goto	l1523
  2788     0290                     u1700:
  2789     0290                     l1521:
  2790     0290  143E               	bsf	___fldiv@bexp,0
  2791     0291                     l1523:
  2792     0291  083E               	movf	___fldiv@bexp,w
  2793     0292  1903               	btfsc	3,2
  2794     0293  2A95               	goto	u1711
  2795     0294  2A96               	goto	u1710
  2796     0295                     u1711:
  2797     0295  2AA6               	goto	l1533
  2798     0296                     u1710:
  2799     0296                     l1525:
  2800     0296  0A3E               	incf	___fldiv@bexp,w
  2801     0297  1D03               	btfss	3,2
  2802     0298  2A9A               	goto	u1721
  2803     0299  2A9B               	goto	u1720
  2804     029A                     u1721:
  2805     029A  2AA3               	goto	l1529
  2806     029B                     u1720:
  2807     029B                     l1527:
  2808     029B  3000               	movlw	0
  2809     029C  00AD               	movwf	___fldiv@b+3
  2810     029D  3000               	movlw	0
  2811     029E  00AC               	movwf	___fldiv@b+2
  2812     029F  3000               	movlw	0
  2813     02A0  00AB               	movwf	___fldiv@b+1
  2814     02A1  3000               	movlw	0
  2815     02A2  00AA               	movwf	___fldiv@b
  2816     02A3                     l1529:
  2817     02A3  17AC               	bsf	___fldiv@b+2,7
  2818     02A4                     l1531:
  2819     02A4  01AD               	clrf	___fldiv@b+3
  2820     02A5  2AAE               	goto	l1535
  2821     02A6                     l1533:
  2822     02A6  3000               	movlw	0
  2823     02A7  00AD               	movwf	___fldiv@b+3
  2824     02A8  3000               	movlw	0
  2825     02A9  00AC               	movwf	___fldiv@b+2
  2826     02AA  3000               	movlw	0
  2827     02AB  00AB               	movwf	___fldiv@b+1
  2828     02AC  3000               	movlw	0
  2829     02AD  00AA               	movwf	___fldiv@b
  2830     02AE                     l1535:
  2831     02AE  0829               	movf	___fldiv@a+3,w
  2832     02AF  3980               	andlw	128
  2833     02B0  00FF               	movwf	btemp+1
  2834     02B1  087F               	movf	btemp+1,w
  2835     02B2  06B7               	xorwf	___fldiv@sign,f
  2836     02B3                     l1537:
  2837     02B3  0829               	movf	___fldiv@a+3,w
  2838     02B4  00AE               	movwf	??___fldiv
  2839     02B5  072E               	addwf	??___fldiv,w
  2840     02B6  00BF               	movwf	___fldiv@aexp
  2841     02B7                     l1539:
  2842     02B7  1FA8               	btfss	___fldiv@a+2,7
  2843     02B8  2ABA               	goto	u1731
  2844     02B9  2ABB               	goto	u1730
  2845     02BA                     u1731:
  2846     02BA  2ABC               	goto	l1543
  2847     02BB                     u1730:
  2848     02BB                     l1541:
  2849     02BB  143F               	bsf	___fldiv@aexp,0
  2850     02BC                     l1543:
  2851     02BC  083F               	movf	___fldiv@aexp,w
  2852     02BD  1903               	btfsc	3,2
  2853     02BE  2AC0               	goto	u1741
  2854     02BF  2AC1               	goto	u1740
  2855     02C0                     u1741:
  2856     02C0  2AD1               	goto	l1553
  2857     02C1                     u1740:
  2858     02C1                     l1545:
  2859     02C1  0A3F               	incf	___fldiv@aexp,w
  2860     02C2  1D03               	btfss	3,2
  2861     02C3  2AC5               	goto	u1751
  2862     02C4  2AC6               	goto	u1750
  2863     02C5                     u1751:
  2864     02C5  2ACE               	goto	l1549
  2865     02C6                     u1750:
  2866     02C6                     l1547:
  2867     02C6  3000               	movlw	0
  2868     02C7  00A9               	movwf	___fldiv@a+3
  2869     02C8  3000               	movlw	0
  2870     02C9  00A8               	movwf	___fldiv@a+2
  2871     02CA  3000               	movlw	0
  2872     02CB  00A7               	movwf	___fldiv@a+1
  2873     02CC  3000               	movlw	0
  2874     02CD  00A6               	movwf	___fldiv@a
  2875     02CE                     l1549:
  2876     02CE  17A8               	bsf	___fldiv@a+2,7
  2877     02CF                     l1551:
  2878     02CF  01A9               	clrf	___fldiv@a+3
  2879     02D0  2AD9               	goto	l522
  2880     02D1                     l1553:
  2881     02D1  3000               	movlw	0
  2882     02D2  00A9               	movwf	___fldiv@a+3
  2883     02D3  3000               	movlw	0
  2884     02D4  00A8               	movwf	___fldiv@a+2
  2885     02D5  3000               	movlw	0
  2886     02D6  00A7               	movwf	___fldiv@a+1
  2887     02D7  3000               	movlw	0
  2888     02D8  00A6               	movwf	___fldiv@a
  2889     02D9                     l522:
  2890     02D9  0829               	movf	___fldiv@a+3,w
  2891     02DA  0428               	iorwf	___fldiv@a+2,w
  2892     02DB  0427               	iorwf	___fldiv@a+1,w
  2893     02DC  0426               	iorwf	___fldiv@a,w
  2894     02DD  1D03               	skipz
  2895     02DE  2AE0               	goto	u1761
  2896     02DF  2AE1               	goto	u1760
  2897     02E0                     u1761:
  2898     02E0  2AFA               	goto	l1563
  2899     02E1                     u1760:
  2900     02E1                     l1555:
  2901     02E1  3000               	movlw	0
  2902     02E2  00AD               	movwf	___fldiv@b+3
  2903     02E3  3000               	movlw	0
  2904     02E4  00AC               	movwf	___fldiv@b+2
  2905     02E5  3000               	movlw	0
  2906     02E6  00AB               	movwf	___fldiv@b+1
  2907     02E7  3000               	movlw	0
  2908     02E8  00AA               	movwf	___fldiv@b
  2909     02E9  3080               	movlw	128
  2910     02EA  04AC               	iorwf	___fldiv@b+2,f
  2911     02EB  307F               	movlw	127
  2912     02EC  04AD               	iorwf	___fldiv@b+3,f
  2913     02ED                     l1557:
  2914     02ED  0837               	movf	___fldiv@sign,w
  2915     02EE  00FF               	movwf	btemp+1
  2916     02EF  087F               	movf	btemp+1,w
  2917     02F0  04AD               	iorwf	___fldiv@b+3,f
  2918     02F1                     l1559:
  2919     02F1  082D               	movf	___fldiv@b+3,w
  2920     02F2  00A9               	movwf	?___fldiv+3
  2921     02F3  082C               	movf	___fldiv@b+2,w
  2922     02F4  00A8               	movwf	?___fldiv+2
  2923     02F5  082B               	movf	___fldiv@b+1,w
  2924     02F6  00A7               	movwf	?___fldiv+1
  2925     02F7  082A               	movf	___fldiv@b,w
  2926     02F8  00A6               	movwf	?___fldiv
  2927     02F9  2C51               	goto	l524
  2928     02FA                     l1563:
  2929     02FA  083E               	movf	___fldiv@bexp,w
  2930     02FB  1D03               	btfss	3,2
  2931     02FC  2AFE               	goto	u1771
  2932     02FD  2AFF               	goto	u1770
  2933     02FE                     u1771:
  2934     02FE  2B08               	goto	l1569
  2935     02FF                     u1770:
  2936     02FF                     l1565:
  2937     02FF  3000               	movlw	0
  2938     0300  00A9               	movwf	?___fldiv+3
  2939     0301  3000               	movlw	0
  2940     0302  00A8               	movwf	?___fldiv+2
  2941     0303  3000               	movlw	0
  2942     0304  00A7               	movwf	?___fldiv+1
  2943     0305  3000               	movlw	0
  2944     0306  00A6               	movwf	?___fldiv
  2945     0307  2C51               	goto	l524
  2946     0308                     l1569:
  2947     0308  083E               	movf	___fldiv@bexp,w
  2948     0309  00AE               	movwf	??___fldiv
  2949     030A  01AF               	clrf	??___fldiv+1
  2950     030B  082F               	movf	??___fldiv+1,w
  2951     030C  00B1               	movwf	??___fldiv+3
  2952     030D  083F               	movf	___fldiv@aexp,w
  2953     030E  022E               	subwf	??___fldiv,w
  2954     030F  00B0               	movwf	??___fldiv+2
  2955     0310  1C03               	skipc
  2956     0311  03B1               	decf	??___fldiv+3,f
  2957     0312  0830               	movf	??___fldiv+2,w
  2958     0313  3E7F               	addlw	127
  2959     0314  00B8               	movwf	___fldiv@new_exp
  2960     0315  0831               	movf	??___fldiv+3,w
  2961     0316  1803               	skipnc
  2962     0317  3E01               	addlw	1
  2963     0318  3E00               	addlw	0
  2964     0319  00B9               	movwf	___fldiv@new_exp+1
  2965     031A                     l1571:
  2966     031A  082D               	movf	___fldiv@b+3,w
  2967     031B  00B6               	movwf	___fldiv@rem+3
  2968     031C  082C               	movf	___fldiv@b+2,w
  2969     031D  00B5               	movwf	___fldiv@rem+2
  2970     031E  082B               	movf	___fldiv@b+1,w
  2971     031F  00B4               	movwf	___fldiv@rem+1
  2972     0320  082A               	movf	___fldiv@b,w
  2973     0321  00B3               	movwf	___fldiv@rem
  2974     0322                     l1573:
  2975     0322  3000               	movlw	0
  2976     0323  00AD               	movwf	___fldiv@b+3
  2977     0324  3000               	movlw	0
  2978     0325  00AC               	movwf	___fldiv@b+2
  2979     0326  3000               	movlw	0
  2980     0327  00AB               	movwf	___fldiv@b+1
  2981     0328  3000               	movlw	0
  2982     0329  00AA               	movwf	___fldiv@b
  2983     032A                     l1575:
  2984     032A  3000               	movlw	0
  2985     032B  00BD               	movwf	___fldiv@grs+3
  2986     032C  3000               	movlw	0
  2987     032D  00BC               	movwf	___fldiv@grs+2
  2988     032E  3000               	movlw	0
  2989     032F  00BB               	movwf	___fldiv@grs+1
  2990     0330  3000               	movlw	0
  2991     0331  00BA               	movwf	___fldiv@grs
  2992     0332                     l1577:
  2993     0332  01BF               	clrf	___fldiv@aexp
  2994     0333  2B7E               	goto	l1597
  2995     0334                     l1579:
  2996     0334  083F               	movf	___fldiv@aexp,w
  2997     0335  1903               	btfsc	3,2
  2998     0336  2B38               	goto	u1781
  2999     0337  2B39               	goto	u1780
  3000     0338                     u1781:
  3001     0338  2B59               	goto	l1589
  3002     0339                     u1780:
  3003     0339                     l1581:
  3004     0339  3001               	movlw	1
  3005     033A  00AE               	movwf	??___fldiv
  3006     033B                     u1795:
  3007     033B  1003               	clrc
  3008     033C  0DB3               	rlf	___fldiv@rem,f
  3009     033D  0DB4               	rlf	___fldiv@rem+1,f
  3010     033E  0DB5               	rlf	___fldiv@rem+2,f
  3011     033F  0DB6               	rlf	___fldiv@rem+3,f
  3012     0340  0BAE               	decfsz	??___fldiv,f
  3013     0341  2B3B               	goto	u1795
  3014     0342  3001               	movlw	1
  3015     0343  00AE               	movwf	??___fldiv
  3016     0344                     u1805:
  3017     0344  1003               	clrc
  3018     0345  0DAA               	rlf	___fldiv@b,f
  3019     0346  0DAB               	rlf	___fldiv@b+1,f
  3020     0347  0DAC               	rlf	___fldiv@b+2,f
  3021     0348  0DAD               	rlf	___fldiv@b+3,f
  3022     0349  0BAE               	decfsz	??___fldiv,f
  3023     034A  2B44               	goto	u1805
  3024     034B                     l1583:
  3025     034B  1FBD               	btfss	___fldiv@grs+3,7
  3026     034C  2B4E               	goto	u1811
  3027     034D  2B4F               	goto	u1810
  3028     034E                     u1811:
  3029     034E  2B50               	goto	l1587
  3030     034F                     u1810:
  3031     034F                     l1585:
  3032     034F  142A               	bsf	___fldiv@b,0
  3033     0350                     l1587:
  3034     0350  3001               	movlw	1
  3035     0351  00AE               	movwf	??___fldiv
  3036     0352                     u1825:
  3037     0352  1003               	clrc
  3038     0353  0DBA               	rlf	___fldiv@grs,f
  3039     0354  0DBB               	rlf	___fldiv@grs+1,f
  3040     0355  0DBC               	rlf	___fldiv@grs+2,f
  3041     0356  0DBD               	rlf	___fldiv@grs+3,f
  3042     0357  0BAE               	decfsz	??___fldiv,f
  3043     0358  2B52               	goto	u1825
  3044     0359                     l1589:
  3045     0359  0829               	movf	___fldiv@a+3,w
  3046     035A  0236               	subwf	___fldiv@rem+3,w
  3047     035B  1D03               	skipz
  3048     035C  2B67               	goto	u1835
  3049     035D  0828               	movf	___fldiv@a+2,w
  3050     035E  0235               	subwf	___fldiv@rem+2,w
  3051     035F  1D03               	skipz
  3052     0360  2B67               	goto	u1835
  3053     0361  0827               	movf	___fldiv@a+1,w
  3054     0362  0234               	subwf	___fldiv@rem+1,w
  3055     0363  1D03               	skipz
  3056     0364  2B67               	goto	u1835
  3057     0365  0826               	movf	___fldiv@a,w
  3058     0366  0233               	subwf	___fldiv@rem,w
  3059     0367                     u1835:
  3060     0367  1C03               	skipc
  3061     0368  2B6A               	goto	u1831
  3062     0369  2B6B               	goto	u1830
  3063     036A                     u1831:
  3064     036A  2B7A               	goto	l1595
  3065     036B                     u1830:
  3066     036B                     l1591:
  3067     036B  173D               	bsf	___fldiv@grs+3,6
  3068     036C                     l1593:
  3069     036C  0826               	movf	___fldiv@a,w
  3070     036D  02B3               	subwf	___fldiv@rem,f
  3071     036E  0827               	movf	___fldiv@a+1,w
  3072     036F  1C03               	skipc
  3073     0370  0F27               	incfsz	___fldiv@a+1,w
  3074     0371  02B4               	subwf	___fldiv@rem+1,f
  3075     0372  0828               	movf	___fldiv@a+2,w
  3076     0373  1C03               	skipc
  3077     0374  0F28               	incfsz	___fldiv@a+2,w
  3078     0375  02B5               	subwf	___fldiv@rem+2,f
  3079     0376  0829               	movf	___fldiv@a+3,w
  3080     0377  1C03               	skipc
  3081     0378  0F29               	incfsz	___fldiv@a+3,w
  3082     0379  02B6               	subwf	___fldiv@rem+3,f
  3083     037A                     l1595:
  3084     037A  3001               	movlw	1
  3085     037B  00FF               	movwf	btemp+1
  3086     037C  087F               	movf	btemp+1,w
  3087     037D  07BF               	addwf	___fldiv@aexp,f
  3088     037E                     l1597:
  3089     037E  301A               	movlw	26
  3090     037F  023F               	subwf	___fldiv@aexp,w
  3091     0380  1C03               	skipc
  3092     0381  2B83               	goto	u1841
  3093     0382  2B84               	goto	u1840
  3094     0383                     u1841:
  3095     0383  2B34               	goto	l1579
  3096     0384                     u1840:
  3097     0384                     l1599:
  3098     0384  0836               	movf	___fldiv@rem+3,w
  3099     0385  0435               	iorwf	___fldiv@rem+2,w
  3100     0386  0434               	iorwf	___fldiv@rem+1,w
  3101     0387  0433               	iorwf	___fldiv@rem,w
  3102     0388  1903               	skipnz
  3103     0389  2B8B               	goto	u1851
  3104     038A  2B8C               	goto	u1850
  3105     038B                     u1851:
  3106     038B  2BAB               	goto	l1613
  3107     038C                     u1850:
  3108     038C                     l1601:
  3109     038C  143A               	bsf	___fldiv@grs,0
  3110     038D  2BAB               	goto	l1613
  3111     038E                     l1603:
  3112     038E  3001               	movlw	1
  3113     038F  00AE               	movwf	??___fldiv
  3114     0390                     u1865:
  3115     0390  1003               	clrc
  3116     0391  0DAA               	rlf	___fldiv@b,f
  3117     0392  0DAB               	rlf	___fldiv@b+1,f
  3118     0393  0DAC               	rlf	___fldiv@b+2,f
  3119     0394  0DAD               	rlf	___fldiv@b+3,f
  3120     0395  0BAE               	decfsz	??___fldiv,f
  3121     0396  2B90               	goto	u1865
  3122     0397                     l1605:
  3123     0397  1FBD               	btfss	___fldiv@grs+3,7
  3124     0398  2B9A               	goto	u1871
  3125     0399  2B9B               	goto	u1870
  3126     039A                     u1871:
  3127     039A  2B9C               	goto	l1609
  3128     039B                     u1870:
  3129     039B                     l1607:
  3130     039B  142A               	bsf	___fldiv@b,0
  3131     039C                     l1609:
  3132     039C  3001               	movlw	1
  3133     039D  00AE               	movwf	??___fldiv
  3134     039E                     u1885:
  3135     039E  1003               	clrc
  3136     039F  0DBA               	rlf	___fldiv@grs,f
  3137     03A0  0DBB               	rlf	___fldiv@grs+1,f
  3138     03A1  0DBC               	rlf	___fldiv@grs+2,f
  3139     03A2  0DBD               	rlf	___fldiv@grs+3,f
  3140     03A3  0BAE               	decfsz	??___fldiv,f
  3141     03A4  2B9E               	goto	u1885
  3142     03A5                     l1611:
  3143     03A5  30FF               	movlw	255
  3144     03A6  07B8               	addwf	___fldiv@new_exp,f
  3145     03A7  1803               	skipnc
  3146     03A8  0AB9               	incf	___fldiv@new_exp+1,f
  3147     03A9  30FF               	movlw	255
  3148     03AA  07B9               	addwf	___fldiv@new_exp+1,f
  3149     03AB                     l1613:
  3150     03AB  1FAC               	btfss	___fldiv@b+2,7
  3151     03AC  2BAE               	goto	u1891
  3152     03AD  2BAF               	goto	u1890
  3153     03AE                     u1891:
  3154     03AE  2B8E               	goto	l1603
  3155     03AF                     u1890:
  3156     03AF                     l1615:
  3157     03AF  01BF               	clrf	___fldiv@aexp
  3158     03B0                     l1617:
  3159     03B0  1FBD               	btfss	___fldiv@grs+3,7
  3160     03B1  2BB3               	goto	u1901
  3161     03B2  2BB4               	goto	u1900
  3162     03B3                     u1901:
  3163     03B3  2BD0               	goto	l1625
  3164     03B4                     u1900:
  3165     03B4                     l1619:
  3166     03B4  30FF               	movlw	255
  3167     03B5  053A               	andwf	___fldiv@grs,w
  3168     03B6  00AE               	movwf	??___fldiv
  3169     03B7  30FF               	movlw	255
  3170     03B8  053B               	andwf	___fldiv@grs+1,w
  3171     03B9  00AF               	movwf	??___fldiv+1
  3172     03BA  30FF               	movlw	255
  3173     03BB  053C               	andwf	___fldiv@grs+2,w
  3174     03BC  00B0               	movwf	??___fldiv+2
  3175     03BD  307F               	movlw	127
  3176     03BE  053D               	andwf	___fldiv@grs+3,w
  3177     03BF  00B1               	movwf	??___fldiv+3
  3178     03C0  0831               	movf	??___fldiv+3,w
  3179     03C1  0430               	iorwf	??___fldiv+2,w
  3180     03C2  042F               	iorwf	??___fldiv+1,w
  3181     03C3  042E               	iorwf	??___fldiv,w
  3182     03C4  1903               	skipnz
  3183     03C5  2BC7               	goto	u1911
  3184     03C6  2BC8               	goto	u1910
  3185     03C7                     u1911:
  3186     03C7  2BCB               	goto	l538
  3187     03C8                     u1910:
  3188     03C8                     l1621:
  3189     03C8  01BF               	clrf	___fldiv@aexp
  3190     03C9  0ABF               	incf	___fldiv@aexp,f
  3191     03CA  2BD0               	goto	l1625
  3192     03CB                     l538:
  3193     03CB  1C2A               	btfss	___fldiv@b,0
  3194     03CC  2BCE               	goto	u1921
  3195     03CD  2BCF               	goto	u1920
  3196     03CE                     u1921:
  3197     03CE  2BD0               	goto	l1625
  3198     03CF                     u1920:
  3199     03CF  2BC8               	goto	l1621
  3200     03D0                     l1625:
  3201     03D0  083F               	movf	___fldiv@aexp,w
  3202     03D1  1903               	btfsc	3,2
  3203     03D2  2BD4               	goto	u1931
  3204     03D3  2BD5               	goto	u1930
  3205     03D4                     u1931:
  3206     03D4  2C06               	goto	l1635
  3207     03D5                     u1930:
  3208     03D5                     l1627:
  3209     03D5  3001               	movlw	1
  3210     03D6  07AA               	addwf	___fldiv@b,f
  3211     03D7  3000               	movlw	0
  3212     03D8  1803               	skipnc
  3213     03D9  3001               	movlw	1
  3214     03DA  07AB               	addwf	___fldiv@b+1,f
  3215     03DB  3000               	movlw	0
  3216     03DC  1803               	skipnc
  3217     03DD  3001               	movlw	1
  3218     03DE  07AC               	addwf	___fldiv@b+2,f
  3219     03DF  3000               	movlw	0
  3220     03E0  1803               	skipnc
  3221     03E1  3001               	movlw	1
  3222     03E2  07AD               	addwf	___fldiv@b+3,f
  3223     03E3                     l1629:
  3224     03E3  1C2D               	btfss	___fldiv@b+3,0
  3225     03E4  2BE6               	goto	u1941
  3226     03E5  2BE7               	goto	u1940
  3227     03E6                     u1941:
  3228     03E6  2C06               	goto	l1635
  3229     03E7                     u1940:
  3230     03E7                     l1631:
  3231     03E7  082A               	movf	___fldiv@b,w
  3232     03E8  00AE               	movwf	??___fldiv
  3233     03E9  082B               	movf	___fldiv@b+1,w
  3234     03EA  00AF               	movwf	??___fldiv+1
  3235     03EB  082C               	movf	___fldiv@b+2,w
  3236     03EC  00B0               	movwf	??___fldiv+2
  3237     03ED  082D               	movf	___fldiv@b+3,w
  3238     03EE  00B1               	movwf	??___fldiv+3
  3239     03EF  3001               	movlw	1
  3240     03F0  00B2               	movwf	??___fldiv+4
  3241     03F1                     u1955:
  3242     03F1  0D31               	rlf	??___fldiv+3,w
  3243     03F2  0CB1               	rrf	??___fldiv+3,f
  3244     03F3  0CB0               	rrf	??___fldiv+2,f
  3245     03F4  0CAF               	rrf	??___fldiv+1,f
  3246     03F5  0CAE               	rrf	??___fldiv,f
  3247     03F6                     u1950:
  3248     03F6  0BB2               	decfsz	??___fldiv+4,f
  3249     03F7  2BF1               	goto	u1955
  3250     03F8  0831               	movf	??___fldiv+3,w
  3251     03F9  00AD               	movwf	___fldiv@b+3
  3252     03FA  0830               	movf	??___fldiv+2,w
  3253     03FB  00AC               	movwf	___fldiv@b+2
  3254     03FC  082F               	movf	??___fldiv+1,w
  3255     03FD  00AB               	movwf	___fldiv@b+1
  3256     03FE  082E               	movf	??___fldiv,w
  3257     03FF  00AA               	movwf	___fldiv@b
  3258     0400                     l1633:
  3259     0400  3001               	movlw	1
  3260     0401  07B8               	addwf	___fldiv@new_exp,f
  3261     0402  1803               	skipnc
  3262     0403  0AB9               	incf	___fldiv@new_exp+1,f
  3263     0404  3000               	movlw	0
  3264     0405  07B9               	addwf	___fldiv@new_exp+1,f
  3265     0406                     l1635:
  3266     0406  0839               	movf	___fldiv@new_exp+1,w
  3267     0407  3A80               	xorlw	128
  3268     0408  00FF               	movwf	btemp+1
  3269     0409  3080               	movlw	128
  3270     040A  027F               	subwf	btemp+1,w
  3271     040B  1D03               	skipz
  3272     040C  2C0F               	goto	u1965
  3273     040D  30FF               	movlw	255
  3274     040E  0238               	subwf	___fldiv@new_exp,w
  3275     040F                     u1965:
  3276     040F  1C03               	skipc
  3277     0410  2C12               	goto	u1961
  3278     0411  2C13               	goto	u1960
  3279     0412                     u1961:
  3280     0412  2C21               	goto	l1639
  3281     0413                     u1960:
  3282     0413                     l1637:
  3283     0413  30FF               	movlw	255
  3284     0414  1283               	bcf	3,5	;RP0=0, select bank0
  3285     0415  1303               	bcf	3,6	;RP1=0, select bank0
  3286     0416  00B8               	movwf	___fldiv@new_exp
  3287     0417  3000               	movlw	0
  3288     0418  00B9               	movwf	___fldiv@new_exp+1
  3289     0419  3000               	movlw	0
  3290     041A  00AD               	movwf	___fldiv@b+3
  3291     041B  3000               	movlw	0
  3292     041C  00AC               	movwf	___fldiv@b+2
  3293     041D  3000               	movlw	0
  3294     041E  00AB               	movwf	___fldiv@b+1
  3295     041F  3000               	movlw	0
  3296     0420  00AA               	movwf	___fldiv@b
  3297     0421                     l1639:
  3298     0421  1283               	bcf	3,5	;RP0=0, select bank0
  3299     0422  1303               	bcf	3,6	;RP1=0, select bank0
  3300     0423  0839               	movf	___fldiv@new_exp+1,w
  3301     0424  3A80               	xorlw	128
  3302     0425  00FF               	movwf	btemp+1
  3303     0426  3080               	movlw	128
  3304     0427  027F               	subwf	btemp+1,w
  3305     0428  1D03               	skipz
  3306     0429  2C2C               	goto	u1975
  3307     042A  3001               	movlw	1
  3308     042B  0238               	subwf	___fldiv@new_exp,w
  3309     042C                     u1975:
  3310     042C  1803               	skipnc
  3311     042D  2C2F               	goto	u1971
  3312     042E  2C30               	goto	u1970
  3313     042F                     u1971:
  3314     042F  2C3D               	goto	l544
  3315     0430                     u1970:
  3316     0430                     l1641:
  3317     0430  1283               	bcf	3,5	;RP0=0, select bank0
  3318     0431  1303               	bcf	3,6	;RP1=0, select bank0
  3319     0432  01B8               	clrf	___fldiv@new_exp
  3320     0433  01B9               	clrf	___fldiv@new_exp+1
  3321     0434                     l1643:
  3322     0434  3000               	movlw	0
  3323     0435  00AD               	movwf	___fldiv@b+3
  3324     0436  3000               	movlw	0
  3325     0437  00AC               	movwf	___fldiv@b+2
  3326     0438  3000               	movlw	0
  3327     0439  00AB               	movwf	___fldiv@b+1
  3328     043A  3000               	movlw	0
  3329     043B  00AA               	movwf	___fldiv@b
  3330     043C                     l1645:
  3331     043C  01B7               	clrf	___fldiv@sign
  3332     043D                     l544:
  3333     043D  1283               	bcf	3,5	;RP0=0, select bank0
  3334     043E  1303               	bcf	3,6	;RP1=0, select bank0
  3335     043F  0838               	movf	___fldiv@new_exp,w
  3336     0440  00BE               	movwf	___fldiv@bexp
  3337     0441                     l1647:
  3338     0441  1C3E               	btfss	___fldiv@bexp,0
  3339     0442  2C44               	goto	u1981
  3340     0443  2C45               	goto	u1980
  3341     0444                     u1981:
  3342     0444  2C47               	goto	l1651
  3343     0445                     u1980:
  3344     0445                     l1649:
  3345     0445  17AC               	bsf	___fldiv@b+2,7
  3346     0446  2C4B               	goto	l1653
  3347     0447                     l1651:
  3348     0447  307F               	movlw	127
  3349     0448  00FF               	movwf	btemp+1
  3350     0449  087F               	movf	btemp+1,w
  3351     044A  05AC               	andwf	___fldiv@b+2,f
  3352     044B                     l1653:
  3353     044B  083E               	movf	___fldiv@bexp,w
  3354     044C  00AE               	movwf	??___fldiv
  3355     044D  1003               	clrc
  3356     044E  0C2E               	rrf	??___fldiv,w
  3357     044F  00AD               	movwf	___fldiv@b+3
  3358     0450  2AED               	goto	l1557
  3359     0451                     l524:
  3360     0451  0008               	return
  3361     0452                     __end_of___fldiv:
  3362                           
  3363                           	psect	text7
  3364     0F8C                     __ptext7:	
  3365 ;; *************** function _Delay_Ms *****************
  3366 ;; Defined at:
  3367 ;;		line 59 in file "test2.c"
  3368 ;; Parameters:    Size  Location     Type
  3369 ;;  s               2    3[COMMON] unsigned int 
  3370 ;; Auto vars:     Size  Location     Type
  3371 ;;  j               2    7[COMMON] unsigned int 
  3372 ;; Return value:  Size  Location     Type
  3373 ;;                  1    wreg      void 
  3374 ;; Registers used:
  3375 ;;		wreg, status,2
  3376 ;; Tracked objects:
  3377 ;;		On entry : 0/0
  3378 ;;		On exit  : 0/0
  3379 ;;		Unchanged: 0/0
  3380 ;; Data sizes:     COMMON   BANK0   BANK1   BANK3   BANK2
  3381 ;;      Params:         2       0       0       0       0
  3382 ;;      Locals:         2       0       0       0       0
  3383 ;;      Temps:          2       0       0       0       0
  3384 ;;      Totals:         6       0       0       0       0
  3385 ;;Total ram usage:        6 bytes
  3386 ;; Hardware stack levels used: 1
  3387 ;; Hardware stack levels required when called: 1
  3388 ;; This function calls:
  3389 ;;		Nothing
  3390 ;; This function is called by:
  3391 ;;		_soundPlay
  3392 ;; This function uses a non-reentrant model
  3393 ;;
  3394                           
  3395     0F8C                     _Delay_Ms:	
  3396                           ;psect for function _Delay_Ms
  3397                           
  3398     0F8C                     l1467:	
  3399                           ;incstack = 0
  3400                           ; Regs used in _Delay_Ms: [wreg+status,2]
  3401                           
  3402                           
  3403                           ;test2.c: 60:     unsigned int j;;test2.c: 61:     for(j = 0; j < s; j++)_delay((unsigne
      +                          d long)((1)*(20000000/4000.0)));
  3404     0F8C  01F7               	clrf	Delay_Ms@j
  3405     0F8D  01F8               	clrf	Delay_Ms@j+1
  3406     0F8E  2F9D               	goto	l63
  3407     0F8F                     l1469:
  3408     0F8F  3007               	movlw	7
  3409     0F90  00F6               	movwf	??_Delay_Ms+1
  3410     0F91  307D               	movlw	125
  3411     0F92  00F5               	movwf	??_Delay_Ms
  3412     0F93                     u2277:
  3413     0F93  0BF5               	decfsz	??_Delay_Ms,f
  3414     0F94  2F93               	goto	u2277
  3415     0F95  0BF6               	decfsz	??_Delay_Ms+1,f
  3416     0F96  2F93               	goto	u2277
  3417     0F97  3001               	movlw	1
  3418     0F98  07F7               	addwf	Delay_Ms@j,f
  3419     0F99  1803               	skipnc
  3420     0F9A  0AF8               	incf	Delay_Ms@j+1,f
  3421     0F9B  3000               	movlw	0
  3422     0F9C  07F8               	addwf	Delay_Ms@j+1,f
  3423     0F9D                     l63:
  3424     0F9D  0874               	movf	Delay_Ms@s+1,w
  3425     0F9E  0278               	subwf	Delay_Ms@j+1,w
  3426     0F9F  1D03               	skipz
  3427     0FA0  2FA3               	goto	u1595
  3428     0FA1  0873               	movf	Delay_Ms@s,w
  3429     0FA2  0277               	subwf	Delay_Ms@j,w
  3430     0FA3                     u1595:
  3431     0FA3  1C03               	skipc
  3432     0FA4  2FA6               	goto	u1591
  3433     0FA5  2FA7               	goto	u1590
  3434     0FA6                     u1591:
  3435     0FA6  2F8F               	goto	l1469
  3436     0FA7                     u1590:
  3437     0FA7                     l66:
  3438     0FA7  0008               	return
  3439     0FA8                     __end_of_Delay_Ms:
  3440                           
  3441                           	psect	text8
  3442     06DA                     __ptext8:	
  3443 ;; *************** function ___wmul *****************
  3444 ;; Defined at:
  3445 ;;		line 15 in file "E:\XC8 Compiler\pic\sources\c90\common\Umul16.c"
  3446 ;; Parameters:    Size  Location     Type
  3447 ;;  multiplier      2    3[COMMON] unsigned int 
  3448 ;;  multiplicand    2    5[COMMON] unsigned int 
  3449 ;; Auto vars:     Size  Location     Type
  3450 ;;  product         2    7[COMMON] unsigned int 
  3451 ;; Return value:  Size  Location     Type
  3452 ;;                  2    3[COMMON] unsigned int 
  3453 ;; Registers used:
  3454 ;;		wreg, status,2, status,0
  3455 ;; Tracked objects:
  3456 ;;		On entry : 0/0
  3457 ;;		On exit  : 0/0
  3458 ;;		Unchanged: 0/0
  3459 ;; Data sizes:     COMMON   BANK0   BANK1   BANK3   BANK2
  3460 ;;      Params:         4       0       0       0       0
  3461 ;;      Locals:         2       0       0       0       0
  3462 ;;      Temps:          0       0       0       0       0
  3463 ;;      Totals:         6       0       0       0       0
  3464 ;;Total ram usage:        6 bytes
  3465 ;; Hardware stack levels used: 1
  3466 ;; Hardware stack levels required when called: 1
  3467 ;; This function calls:
  3468 ;;		Nothing
  3469 ;; This function is called by:
  3470 ;;		_main
  3471 ;; This function uses a non-reentrant model
  3472 ;;
  3473                           
  3474     06DA                     ___wmul:	
  3475                           ;psect for function ___wmul
  3476                           
  3477     06DA                     l1721:	
  3478                           ;incstack = 0
  3479                           ; Regs used in ___wmul: [wreg+status,2+status,0]
  3480                           
  3481     06DA  01F7               	clrf	___wmul@product
  3482     06DB  01F8               	clrf	___wmul@product+1
  3483     06DC                     l1723:
  3484     06DC  1C73               	btfss	___wmul@multiplier,0
  3485     06DD  2EDF               	goto	u2131
  3486     06DE  2EE0               	goto	u2130
  3487     06DF                     u2131:
  3488     06DF  2EE6               	goto	l173
  3489     06E0                     u2130:
  3490     06E0                     l1725:
  3491     06E0  0875               	movf	___wmul@multiplicand,w
  3492     06E1  07F7               	addwf	___wmul@product,f
  3493     06E2  1803               	skipnc
  3494     06E3  0AF8               	incf	___wmul@product+1,f
  3495     06E4  0876               	movf	___wmul@multiplicand+1,w
  3496     06E5  07F8               	addwf	___wmul@product+1,f
  3497     06E6                     l173:
  3498     06E6  3001               	movlw	1
  3499     06E7                     u2145:
  3500     06E7  1003               	clrc
  3501     06E8  0DF5               	rlf	___wmul@multiplicand,f
  3502     06E9  0DF6               	rlf	___wmul@multiplicand+1,f
  3503     06EA  3EFF               	addlw	-1
  3504     06EB  1D03               	skipz
  3505     06EC  2EE7               	goto	u2145
  3506     06ED                     l1727:
  3507     06ED  3001               	movlw	1
  3508     06EE                     u2155:
  3509     06EE  1003               	clrc
  3510     06EF  0CF4               	rrf	___wmul@multiplier+1,f
  3511     06F0  0CF3               	rrf	___wmul@multiplier,f
  3512     06F1  3EFF               	addlw	-1
  3513     06F2  1D03               	skipz
  3514     06F3  2EEE               	goto	u2155
  3515     06F4                     l1729:
  3516     06F4  0873               	movf	___wmul@multiplier,w
  3517     06F5  0474               	iorwf	___wmul@multiplier+1,w
  3518     06F6  1D03               	btfss	3,2
  3519     06F7  2EF9               	goto	u2161
  3520     06F8  2EFA               	goto	u2160
  3521     06F9                     u2161:
  3522     06F9  2EDC               	goto	l1723
  3523     06FA                     u2160:
  3524     06FA                     l1731:
  3525     06FA  0878               	movf	___wmul@product+1,w
  3526     06FB  00F4               	movwf	?___wmul+1
  3527     06FC  0877               	movf	___wmul@product,w
  3528     06FD  00F3               	movwf	?___wmul
  3529     06FE                     l175:
  3530     06FE  0008               	return
  3531     06FF                     __end_of___wmul:
  3532                           
  3533                           	psect	text9
  3534     0FCC                     __ptext9:	
  3535 ;; *************** function _isr *****************
  3536 ;; Defined at:
  3537 ;;		line 44 in file "test2.c"
  3538 ;; Parameters:    Size  Location     Type
  3539 ;;		None
  3540 ;; Auto vars:     Size  Location     Type
  3541 ;;		None
  3542 ;; Return value:  Size  Location     Type
  3543 ;;                  1    wreg      void 
  3544 ;; Registers used:
  3545 ;;		wreg, status,2, status,0, btemp+1
  3546 ;; Tracked objects:
  3547 ;;		On entry : 0/0
  3548 ;;		On exit  : 0/0
  3549 ;;		Unchanged: 0/0
  3550 ;; Data sizes:     COMMON   BANK0   BANK1   BANK3   BANK2
  3551 ;;      Params:         0       0       0       0       0
  3552 ;;      Locals:         0       0       0       0       0
  3553 ;;      Temps:          3       0       0       0       0
  3554 ;;      Totals:         3       0       0       0       0
  3555 ;;Total ram usage:        3 bytes
  3556 ;; Hardware stack levels used: 1
  3557 ;; This function calls:
  3558 ;;		Nothing
  3559 ;; This function is called by:
  3560 ;;		Interrupt level 1
  3561 ;; This function uses a non-reentrant model
  3562 ;;
  3563                           
  3564     0FCC                     _isr:	
  3565                           ;psect for function _isr
  3566                           
  3567     0FCC                     i1l1735:
  3568                           
  3569                           ;test2.c: 45:     if(INTF){
  3570     0FCC  1C8B               	btfss	11,1	;volatile
  3571     0FCD  2FCF               	goto	u217_21
  3572     0FCE  2FD0               	goto	u217_20
  3573     0FCF                     u217_21:
  3574     0FCF  2FDF               	goto	i1l57
  3575     0FD0                     u217_20:
  3576     0FD0                     i1l1737:
  3577                           
  3578                           ;test2.c: 46:         switchRitm++;
  3579     0FD0  3001               	movlw	1
  3580     0FD1  00FF               	movwf	btemp+1
  3581     0FD2  087F               	movf	btemp+1,w
  3582     0FD3  1283               	bcf	3,5	;RP0=0, select bank0
  3583     0FD4  1303               	bcf	3,6	;RP1=0, select bank0
  3584     0FD5  07DD               	addwf	_switchRitm,f
  3585     0FD6                     i1l1739:
  3586                           
  3587                           ;test2.c: 47:         if(switchRitm > 3)
  3588     0FD6  3004               	movlw	4
  3589     0FD7  025D               	subwf	_switchRitm,w
  3590     0FD8  1C03               	skipc
  3591     0FD9  2FDB               	goto	u218_21
  3592     0FDA  2FDC               	goto	u218_20
  3593     0FDB                     u218_21:
  3594     0FDB  2FDE               	goto	i1l58
  3595     0FDC                     u218_20:
  3596     0FDC                     i1l1741:
  3597                           
  3598                           ;test2.c: 48:             switchRitm = 1;
  3599     0FDC  01DD               	clrf	_switchRitm
  3600     0FDD  0ADD               	incf	_switchRitm,f
  3601     0FDE                     i1l58:
  3602                           
  3603                           ;test2.c: 49:         INTF = 0;
  3604     0FDE  108B               	bcf	11,1	;volatile
  3605     0FDF                     i1l57:	
  3606                           ;test2.c: 50:     }
  3607                           
  3608                           
  3609                           ;test2.c: 51:     if(TMR1IF){
  3610     0FDF  1283               	bcf	3,5	;RP0=0, select bank0
  3611     0FE0  1303               	bcf	3,6	;RP1=0, select bank0
  3612     0FE1  1C0C               	btfss	12,0	;volatile
  3613     0FE2  2FE4               	goto	u219_21
  3614     0FE3  2FE5               	goto	u219_20
  3615     0FE4                     u219_21:
  3616     0FE4  2FF7               	goto	i1l60
  3617     0FE5                     u219_20:
  3618     0FE5                     i1l1743:
  3619                           
  3620                           ;test2.c: 52:         TMR1H = timerH;
  3621     0FE5  085C               	movf	_timerH,w
  3622     0FE6  008F               	movwf	15	;volatile
  3623                           
  3624                           ;test2.c: 53:         TMR1L = timerL;
  3625     0FE7  085B               	movf	_timerL,w
  3626     0FE8  008E               	movwf	14	;volatile
  3627     0FE9                     i1l1745:
  3628                           
  3629                           ;test2.c: 54:         PORTCbits.RC2 = ~PORTCbits.RC2;
  3630     0FE9  1003               	clrc
  3631     0FEA  1D07               	btfss	7,2	;volatile
  3632     0FEB  1403               	setc
  3633     0FEC  1803               	btfsc	3,0
  3634     0FED  2FEF               	goto	u220_21
  3635     0FEE  2FF3               	goto	u220_20
  3636     0FEF                     u220_21:
  3637     0FEF  1283               	bcf	3,5	;RP0=0, select bank0
  3638     0FF0  1303               	bcf	3,6	;RP1=0, select bank0
  3639     0FF1  1507               	bsf	7,2	;volatile
  3640     0FF2  2FF6               	goto	u221_24
  3641     0FF3                     u220_20:
  3642     0FF3  1283               	bcf	3,5	;RP0=0, select bank0
  3643     0FF4  1303               	bcf	3,6	;RP1=0, select bank0
  3644     0FF5  1107               	bcf	7,2	;volatile
  3645     0FF6                     u221_24:
  3646     0FF6                     i1l1747:
  3647                           
  3648                           ;test2.c: 55:         TMR1IF = 0;
  3649     0FF6  100C               	bcf	12,0	;volatile
  3650     0FF7                     i1l60:
  3651     0FF7  0872               	movf	??_isr+2,w
  3652     0FF8  00FF               	movwf	btemp+1
  3653     0FF9  0871               	movf	??_isr+1,w
  3654     0FFA  008A               	movwf	10
  3655     0FFB  0E70               	swapf	??_isr,w
  3656     0FFC  0083               	movwf	3
  3657     0FFD  0EFE               	swapf	btemp,f
  3658     0FFE  0E7E               	swapf	btemp,w
  3659     0FFF  0009               	retfie
  3660     1000                     __end_of_isr:
  3661     007E                     btemp	set	126	;btemp
  3662     007E                     wtemp0	set	126
  3663                           
  3664                           	psect	intentry
  3665     0004                     __pintentry:	
  3666                           ;incstack = 0
  3667                           ; Regs used in _isr: [wreg+status,2+status,0+btemp+1]
  3668                           
  3669     0004                     interrupt_function:
  3670     007E                     saved_w	set	btemp
  3671     0004  00FE               	movwf	btemp
  3672     0005  0E03               	swapf	3,w
  3673     0006  00F0               	movwf	??_isr
  3674     0007  080A               	movf	10,w
  3675     0008  00F1               	movwf	??_isr+1
  3676     0009  087F               	movf	btemp+1,w
  3677     000A  00F2               	movwf	??_isr+2
  3678     000B  120A  158A  2FCC   	ljmp	_isr
  3679                           
  3680                           	psect	idloc
  3681                           
  3682                           ;Config register IDLOC0 @ 0x2000
  3683                           ;	unspecified, using default values
  3684     2000                     	org	8192
  3685     2000  3FFF               	dw	16383
  3686                           
  3687                           ;Config register IDLOC1 @ 0x2001
  3688                           ;	unspecified, using default values
  3689     2001                     	org	8193
  3690     2001  3FFF               	dw	16383
  3691                           
  3692                           ;Config register IDLOC2 @ 0x2002
  3693                           ;	unspecified, using default values
  3694     2002                     	org	8194
  3695     2002  3FFF               	dw	16383
  3696                           
  3697                           ;Config register IDLOC3 @ 0x2003
  3698                           ;	unspecified, using default values
  3699     2003                     	org	8195
  3700     2003  3FFF               	dw	16383
  3701                           
  3702                           	psect	config
  3703                           
  3704                           ;Config register CONFIG1 @ 0x2007
  3705                           ;	Oscillator Selection bits
  3706                           ;	FOSC = HS, HS oscillator: High-speed crystal/resonator on RA6/OSC2/CLKOUT and RA7/OSC1
      +                          /CLKIN
  3707                           ;	Watchdog Timer Enable bit
  3708                           ;	WDTE = OFF, WDT disabled and can be enabled by SWDTEN bit of the WDTCON register
  3709                           ;	Power-up Timer Enable bit
  3710                           ;	PWRTE = ON, PWRT enabled
  3711                           ;	RE3/MCLR pin function select bit
  3712                           ;	MCLRE = ON, RE3/MCLR pin function is MCLR
  3713                           ;	Code Protection bit
  3714                           ;	CP = OFF, Program memory code protection is disabled
  3715                           ;	Data Code Protection bit
  3716                           ;	CPD = OFF, Data memory code protection is disabled
  3717                           ;	Brown Out Reset Selection bits
  3718                           ;	BOREN = OFF, BOR disabled
  3719                           ;	Internal External Switchover bit
  3720                           ;	IESO = OFF, Internal/External Switchover mode is disabled
  3721                           ;	Fail-Safe Clock Monitor Enabled bit
  3722                           ;	FCMEN = OFF, Fail-Safe Clock Monitor is disabled
  3723                           ;	Low Voltage Programming Enable bit
  3724                           ;	LVP = OFF, RB3 pin has digital I/O, HV on MCLR must be used for programming
  3725                           ;	In-Circuit Debugger Mode bit
  3726                           ;	DEBUG = 0x1, unprogrammed default
  3727     2007                     	org	8199
  3728     2007  20E2               	dw	8418
  3729                           
  3730                           ;Config register CONFIG2 @ 0x2008
  3731                           ;	Brown-out Reset Selection bit
  3732                           ;	BOR4V = BOR40V, Brown-out Reset set to 4.0V
  3733                           ;	Flash Program Memory Self Write Enable bits
  3734                           ;	WRT = OFF, Write protection off
  3735     2008                     	org	8200
  3736     2008  3FFF               	dw	16383

Data Sizes:
    Strings     0
    Constant    130
    Data        66
    BSS         2
    Persistent  0
    Stack       0

Auto Spaces:
    Space          Size  Autos    Used
    COMMON           14     11      11
    BANK0            80     59      62
    BANK1            80      0      65
    BANK3            96      0       0
    BANK2            96      0       0

Pointer List with Targets:

    None.

Critical Paths under _main in COMMON

    _soundPlay->___xxtofl
    ___fltol->___xxtofl
    ___flsub->___fladd
    ___flsub->___xxtofl
    ___fldiv->___xxtofl

Critical Paths under _isr in COMMON

    None.

Critical Paths under _main in BANK0

    _main->_soundPlay
    _soundPlay->___fltol
    ___fltol->___fldiv
    ___flsub->___fladd
    ___fldiv->___xxtofl

Critical Paths under _isr in BANK0

    None.

Critical Paths under _main in BANK1

    None.

Critical Paths under _isr in BANK1

    None.

Critical Paths under _main in BANK3

    None.

Critical Paths under _isr in BANK3

    None.

Critical Paths under _main in BANK2

    None.

Critical Paths under _isr in BANK2

    None.

Call Graph Tables:

 ---------------------------------------------------------------------------------
 (Depth) Function   	        Calls       Base Space   Used Autos Params    Refs
 ---------------------------------------------------------------------------------
 (0) _main                                                 7     7      0    5660
                                             52 BANK0      7     7      0
                             ___wmul
                          _soundPlay
 ---------------------------------------------------------------------------------
 (1) _soundPlay                                           10     6      4    5151
                                             42 BANK0     10     6      4
                           _Delay_Ms
                            ___fldiv
                            ___flsub
                            ___fltol
                             ___wmul (ARG)
                           ___xxtofl
 ---------------------------------------------------------------------------------
 (2) ___xxtofl                                            14    10      4     474
                                              3 COMMON     8     4      4
                                              0 BANK0      6     6      0
 ---------------------------------------------------------------------------------
 (2) ___fltol                                             10     6      4     381
                                             32 BANK0     10     6      4
                            ___fldiv (ARG)
                            ___flsub (ARG)
                           ___xxtofl (ARG)
 ---------------------------------------------------------------------------------
 (2) ___flsub                                              8     0      8    2485
                                             12 BANK0      8     0      8
                            ___fladd
                           ___xxtofl (ARG)
 ---------------------------------------------------------------------------------
 (3) ___fladd                                             20    12      8    2136
                                              3 COMMON     8     0      8
                                              0 BANK0     12    12      0
 ---------------------------------------------------------------------------------
 (2) ___fldiv                                             26    18      8    1425
                                              6 BANK0     26    18      8
                           ___xxtofl (ARG)
 ---------------------------------------------------------------------------------
 (2) _Delay_Ms                                             6     4      2     122
                                              3 COMMON     6     4      2
 ---------------------------------------------------------------------------------
 (1) ___wmul                                               6     2      4     396
                                              3 COMMON     6     2      4
 ---------------------------------------------------------------------------------
 Estimated maximum stack depth 3
 ---------------------------------------------------------------------------------
 (Depth) Function   	        Calls       Base Space   Used Autos Params    Refs
 ---------------------------------------------------------------------------------
 (4) _isr                                                  3     3      0       0
                                              0 COMMON     3     3      0
 ---------------------------------------------------------------------------------
 Estimated maximum stack depth 4
 ---------------------------------------------------------------------------------

 Call Graph Graphs:

 _main (ROOT)
   ___wmul
   _soundPlay
     _Delay_Ms
     ___fldiv
       ___xxtofl (ARG)
     ___flsub
       ___fladd
       ___xxtofl (ARG)
     ___fltol
       ___fldiv (ARG)
       ___flsub (ARG)
       ___xxtofl (ARG)
     ___wmul (ARG)
     ___xxtofl (ARG)

 _isr (ROOT)

 Address spaces:
Name               Size   Autos  Total    Cost      Usage
BANK3               60      0       0       9        0.0%
BITBANK3            60      0       0       8        0.0%
SFR3                 0      0       0       4        0.0%
BITSFR3              0      0       0       4        0.0%
BANK2               60      0       0      11        0.0%
BITBANK2            60      0       0      10        0.0%
SFR2                 0      0       0       5        0.0%
BITSFR2              0      0       0       5        0.0%
BANK1               50      0      41       7       81.2%
BITBANK1            50      0       0       6        0.0%
SFR1                 0      0       0       2        0.0%
BITSFR1              0      0       0       2        0.0%
BANK0               50     3B      3E       5       77.5%
BITBANK0            50      0       0       4        0.0%
SFR0                 0      0       0       1        0.0%
BITSFR0              0      0       0       1        0.0%
COMMON               E      B       B       1       78.6%
BITCOMMON            E      0       0       0        0.0%
CODE                 0      0       0       0        0.0%
DATA                 0      0      8A      12        0.0%
ABS                  0      0      8A       3        0.0%
NULL                 0      0       0       0        0.0%
STACK                0      0       0       2        0.0%
EEDATA             100      0       0       0        0.0%


Microchip Technology PIC Macro Assembler V2.41 build 20230208172133 
Symbol Table                                                                                   Mon May 22 15:54:53 2023

           ___fldiv@aexp 003F             ___fldiv@bexp 003E                        pc 0002  
           ___fldiv@sign 0037                       l63 0F9D                       l66 0FA7  
                     l76 054B                       l69 0518                       fsr 0004  
    ___wmul@multiplicand 0075                      l173 06E6                      l175 06FE  
                    l512 0FCB                      l522 02D9                      l524 0451  
                    l620 066E                      l509 0282                      l470 0109  
                    l366 07EA                      l606 0603                      l359 07FF  
                    l544 043D                      l472 00E2                      l608 0698  
                    l369 07FF                      l538 03CB                      l466 0086  
                    l491 01F6                      l619 0662                      l487 01D2  
                    l479 0282                      l497 0218                      _GIE 005F  
                    _isr 0FCC                      fsr0 0004                      indf 0000  
           ___fltol@exp1 0049                     l1301 006E                     l1311 008C  
                   l1303 0073                     l1401 01C4                     l1321 009A  
                   l1313 0090                     l1305 007B                     l1411 01F1  
                   l1403 01DA                     l1331 00A4                     l1323 009C  
                   l1315 0094                     l1307 007C                     l1421 0204  
                   l1413 01F5                     l1405 01DF                     l1341 00AE  
                   l1333 00A6                     l1325 009E                     l1317 0096  
                   l1309 007E                     l1431 0215                     l1415 01FA  
                   l1423 0206                     l1351 00E6                     l1343 00B0  
                   l1335 00A8                     l1327 00A0                     l1319 0098  
                   l1271 0034                     l1511 0FAC                     l1503 07DF  
                   l1601 038C                     l1521 0290                     l1441 0234  
                   l1417 01FD                     l1409 01E8                     l1425 020A  
                   l1361 00FD                     l1353 00ED                     l1337 00AA  
                   l1329 00A2                     l1345 00B2                     l1281 004B  
                   l1273 0038                     l1505 07EF                     l1611 03A5  
                   l1603 038E                     l1531 02A4                     l1523 0291  
                   l1515 0283                     l1451 0268                     l1443 0252  
                   l1435 021D                     l1427 020B                     l1419 01FF  
                   l1371 011B                     l1355 00EF                     l1363 0101  
                   l1347 00B3                     l1339 00AC                     l1291 005F  
                   l1283 004C                     l1275 0039                     l1267 002B  
                   l1507 07F4                     l1621 03C8                     l1605 0397  
                   l1613 03AB                     l1541 02BB                     l1525 0296  
                   l1533 02A6                     l1517 0288                     l1461 0278  
                   l1453 026D                     l1437 0222                     l1445 0256  
                   l1429 020F                     l1381 0143                     l1373 0132  
                   l1365 010D                     l1357 00F3                     l1349 00CA  
                   l1293 0060                     l1277 003E                     l1285 004E  
                   l1269 0030                     l1509 0FA8                     l1701 068B  
                   l1631 03E7                     l1615 03AF                     l1607 039B  
                   l1551 02CF                     l1543 02BC                     l1535 02AE  
                   l1527 029B                     l1519 028C                     l1463 027D  
                   l1455 026E                     l1447 025B                     l1439 0230  
                   l1391 016C                     l1383 0147                     l1375 0136  
                   l1367 0112                     l1359 00F4                     l1295 0064  
                   l1287 0056                     l1279 0043                     l1471 0788  
                   l1703 068F                     l1711 0507                     l1721 06DA  
                   l1641 0430                     l1633 0400                     l1625 03D0  
                   l1617 03B0                     l1609 039C                     l1545 02C1  
                   l1553 02D1                     l1537 02B3                     l1529 02A3  
                   l1465 0281                     l1457 0272                     l1449 0260  
                   l1393 01AA                     l1385 0148                     l1377 013A  
                   l1297 0068                     l1289 0059                     l1481 07B0  
                   l1473 0793                     l1705 0690                     l1713 0509  
                   l1801 0559                     l1731 06FA                     l1723 06DC  
                   l1467 0F8C                     l1651 0447                     l1643 0434  
                   l1627 03D5                     l1635 0406                     l1619 03B4  
                   l1571 031A                     l1555 02E1                     l1563 02FA  
                   l1547 02C6                     l1539 02B7                     l1459 0274  
                   l1395 01AE                     l1387 0151                     l1379 0141  
                   l1299 0069                     l1483 07B8                     l1715 050B  
                   l1811 05C3                     l1803 0569                     l1725 06E0  
                   l1469 0F8F                     l1653 044B                     l1645 043C  
                   l1637 0413                     l1629 03E3                     l1581 0339  
                   l1573 0322                     l1565 02FF                     l1557 02ED  
                   l1549 02CE                     l1397 01B0                     l1389 0156  
                   l1493 07C6                     l1485 07BA                     l1477 079C  
                   l1661 05E2                     l1717 050C                     l1709 0452  
                   l1805 0586                     l1813 05C9                     l1727 06ED  
                   l1647 0441                     l1639 0421                     l1591 036B  
                   l1583 034B                     l1575 032A                     l1559 02F1  
                   l1399 01B5                     l1495 07CF                     l1487 07BE  
                   l1479 07AF                     l1663 05E7                     l1719 0515  
                   l1807 05AF                     l1815 05D8                     l1751 051D  
                   l1729 06F4                     l1649 0445                     l1593 036C  
                   l1585 034F                     l1577 0332                     l1569 0308  
                   l1497 07D8                     l1681 062B                     l1673 0614  
                   l1665 05EB                     l1817 05D9                     l1809 05BD  
                   l1761 0531                     l1753 0520                     l1595 037A  
                   l1587 0350                     l1579 0334                     l1691 0658  
                   l1683 062F                     l1675 0617                     l1667 05FB  
                   l1771 053A                     l1763 0532                     l1755 0523  
                   l1589 0359                     l1597 037E                     l1693 065C  
                   l1685 063D                     l1677 061B                     l1669 060B  
                   l1781 0541                     l1773 053B                     l1765 0533  
                   l1757 0526                     l1749 0519                     l1599 0384  
                   l1695 0666                     l1687 0646                     l1679 0624  
                   l1855 0561                     l1783 0543                     l1775 053C  
                   l1767 0534                     l1759 0530                     l1697 0670  
                   l1689 064D                     l1785 0544                     l1777 053D  
                   l1769 0537                     l1699 0686                     l1795 0550  
                   l1787 054A                     l1779 053E                     l1797 0553  
                   l1799 0556                     ?_isr 0070                     u1200 008C  
                   u2000 05EB                     u1201 008B                     u2001 05EA  
                   u1210 0090                     u1130 0038                     u2010 060B  
                   u1211 008F                     u1131 0037                     u2011 060A  
                   u1300 0112                     u1220 00CA                     u1140 003E  
                   u2100 067B                     u1301 0111                     u1221 00C9  
                   u1141 003D                     u1230 00D3                     u1150 0043  
                   u2110 068B                     u2030 062A                     u1311 0124  
                   u1231 00D1                     u1151 0042                     u2111 068A  
                   u2031 0629                     u1400 01DA                     u1320 0136  
                   u1312 012B                     u1240 00D4                     u1160 005F  
                   u2120 068F                     u1401 01D9                     u1321 0135  
                   u1313 0132                     u1225 00C6                     u1161 005E  
                   u2121 068E                     u2105 0676                     u2025 061C  
                   u2130 06E0                     u1410 01DF                     u1330 013A  
                   u1250 00E6                     u1170 0068                     u2050 064C  
                   u2131 06DF                     u1411 01DE                     u1331 0139  
                   u1251 00E5                     u1171 0067                     u2051 064B  
                   u1500 0222                     u1340 0147                     u1260 00F3  
                   u1180 006E                     u2220 054A                     u1501 0221  
                   u1341 0146                     u1261 00F2                     u1181 006D  
                   u2045 063E                     u2221 0549                     u1510 0234  
                   u1430 01F5                     u1190 0073                     u2070 065C  
                   u2230 054F                     u1511 0233                     u1431 01F4  
                   u1191 0072                     u2071 065B                     u2231 054E  
                   u2160 06FA                     u1520 0243                     u1440 01FA  
                   u1360 016C                     u1280 0109                     u1600 0793  
                   u2080 0662                     u2240 05C9                     u2161 06F9  
                   u2145 06E7                     u1441 01F9                     u1425 01EA  
                   u1361 016B                     u1281 0108                     u1601 0792  
                   u2081 0661                     u2065 0651                     u2241 05C8  
                   u1530 0252                     u1450 0204                     u1290 010D  
                   u1610 07AA                     u2090 0666                     u2155 06EE  
                   u1531 0251                     u1451 0203                     u1371 0183  
                   u1363 0168                     u1355 014A                     u1291 010C  
                   u1275 00F6                     u2091 0665                     u1700 0290  
                   u1540 025B                     u1460 020A                     u1380 0197  
                   u1372 0184                     u1620 07BE                     u1701 028F  
                   u1541 025A                     u1525 023E                     u1461 0209  
                   u1381 0198                     u1373 0189                     u1621 07BD  
                   u1710 0296                     u1550 0260                     u1470 020F  
                   u1390 01B5                     u1382 019D                     u1374 018A  
                   u1630 07C5                     u1711 0295                     u1551 025F  
                   u1471 020E                     u1391 01B4                     u1383 019E  
                   u1375 018F                     u1631 07C4                     u1615 07A5  
                   u1720 029B                     u1560 026D                     u1480 0215  
                   u1376 0190                     u1721 029A                     u1561 026C  
                   u1481 0214                     u2257 05B7                     u1810 034F  
                   u1730 02BB                     u1570 0272                     u1490 021C  
                   u1650 07D7                     u1811 034E                     u1731 02BA  
                   u1571 0271                     u1491 021B                     u1651 07D6  
                   u2267 05D1                     u1900 03B4                     u1740 02C1  
                   u1580 0281                     u1660 07DE                     u2277 0F93  
                   u1901 03B3                     u1805 0344                     u1741 02C0  
                   u1581 0280                     u1661 07DD                     u1645 07C7  
                   u1590 0FA7                     u1910 03C8                     u1830 036B  
                   u1750 02C6                     u1591 0FA6                     u1911 03C7  
                   u1831 036A                     u1751 02C5                     u1920 03CF  
                   u1840 0384                     u1760 02E1                     u1680 07EF  
                   u1921 03CE                     u1841 0383                     u1825 0352  
                   u1761 02E0                     u1681 07EE                     u1930 03D5  
                   u1850 038C                     u1770 02FF                     u1690 07F4  
                   u1595 0FA3                     u1931 03D4                     u1851 038B  
                   u1835 0367                     u1771 02FE                     u1691 07F3  
                   u1675 07E1                     u1940 03E7                     u1780 0339  
                   u1941 03E6                     u1781 0338                     u1950 03F6  
                   u1870 039B                     u1871 039A                     u1960 0413  
                   u1961 0412                     u1865 0390                     u1970 0430  
                   u1890 03AF                     u1971 042F                     u1955 03F1  
                   u1891 03AE                     u1795 033B                     _PEIE 005E  
                   u1980 0445                     u1981 0444                     u1965 040F  
                   u1885 039E                     _INTE 005C                     u1990 05E7  
                   _INTF 0059                     u1975 042C                     u1991 05E6  
                   i1l60 0FF7                     i1l57 0FDF                     i1l58 0FDE  
                   _WPUB 0095                     _main 0519                     btemp 007E  
                   start 000E          ___fldiv@new_exp 0038                    ??_isr 0070  
          ___fltol@sign1 0048          __end_of___fladd 0283                    ?_main 0070  
        __end_of___fldiv 0452          __end_of___flsub 0FCC          __end_of___fltol 0800  
                  _ANSEL 0188                    _TMR1H 000F                    _TMR1L 000E  
                  _PORTB 0006                    _PORTD 0008                    _TRISD 0088  
                  _notes 0706                    main@i 005A                    pclath 000A  
                  status 0003                    wtemp0 007E         __end_of_Delay_Ms 0FA8  
        __initialization 0011             __end_of_main 05DF          soundPlay@period 0050  
                 ??_main 0054                   _ANSELH 0189                   i1l1741 0FDC  
                 i1l1743 0FE5                   i1l1735 0FCC                   i1l1745 0FE9  
                 i1l1737 0FD0                   i1l1747 0FF6                   i1l1739 0FD6  
                 u220_20 0FF3                   u220_21 0FEF                   u221_24 0FF6  
                 u217_20 0FD0                   u217_21 0FCF                   u218_20 0FDC  
                 u218_21 0FDB                   u219_20 0FE5                   u219_21 0FE4  
                 _TMR1IE 0460                   _TMR1IF 0060         __end_of___xxtofl 0699  
              ??___fladd 0020                   ___wmul 06DA                ??___fldiv 002E  
              ??___flsub 007B                ??___fltol 0044                   _timerH 005C  
                 _timerL 005B                   saved_w 007E             ___xxtofl@arg 0022  
           ___xxtofl@exp 0021             ___xxtofl@val 0073  __end_of__initialization 0027  
             ___fltol@f1 0040           __pcstackCOMMON 0070             __pidataBANK0 06FF  
           __pidataBANK1 0699            __end_of_notes 0788           _OPTION_REGbits 0081  
              ?_Delay_Ms 0073               __pbssBANK0 005B               __pmaintext 0519  
                ?___wmul 0073               __pintentry 0004                ?___xxtofl 0073  
             ??_Delay_Ms 0075               __stringtab 0700                  ___fladd 002B  
                ___fldiv 0283                  ___flsub 0FA8                  ___fltol 0788  
                __ptext1 0452                  __ptext2 05DF                  __ptext3 0788  
                __ptext4 0FA8                  __ptext5 002B                  __ptext6 0283  
                __ptext7 0F8C                  __ptext8 06DA                  __ptext9 0FCC  
              _T1CONbits 0010               ??___xxtofl 0077     end_of_initialization 0027  
              Delay_Ms@j 0077                Delay_Ms@s 0073        __end_of_soundPlay 0519  
              _PORTBbits 0006                _PORTCbits 0007              ___fladd@grs 002B  
          ___xxtofl@sign 0020                _TRISBbits 0086                _TRISCbits 0087  
            ___fldiv@grs 003A              ___fldiv@rem 0033               _switchRitm 005D  
          soundPlay@freq 004A           __end_of___wmul 06FF      start_initialization 0011  
            __end_of_isr 1000        soundPlay@duration 004C                 ??___wmul 0077  
             init_fetch0 0F79              __pdataBANK0 005D              __pdataBANK1 00A0  
              ___fladd@a 0077                ___fladd@b 0073                ___fldiv@a 0026  
              ___fldiv@b 002A                ___flsub@a 002C                ___flsub@b 0030  
              ___latbits 0002            __pcstackBANK0 0020                 ?___fladd 0073  
               ?___fldiv 0026                 ?___flsub 002C                 ?___fltol 0040  
              __pstrings 0700        interrupt_function 0004           ___wmul@product 0077  
            __stringbase 0705        ___wmul@multiplier 0073                _soundPlay 0452  
               _Delay_Ms 0F8C       __end_of__stringtab 0706               ?_soundPlay 004A  
               ___xxtofl 05DF                 _main$879 0058                 _duration 00A0  
               init_ram0 0F7D                 intlevel1 0000                stringcode 0700  
            ??_soundPlay 004E                 stringdir 0700                 stringtab 0700  
          ___fladd@signs 0028             ___fladd@aexp 0029             ___fladd@bexp 002A  
